
life.elf:     ファイル形式 elf32-littleriscv


セクション .text.init の逆アセンブル:

00000000 <_start>:
   0:	00000093          	li	ra,0
   4:	00000113          	li	sp,0
   8:	00000193          	li	gp,0
   c:	00000213          	li	tp,0
  10:	00000293          	li	t0,0
  14:	00000313          	li	t1,0
  18:	00000393          	li	t2,0
  1c:	00000413          	li	s0,0
  20:	00000493          	li	s1,0
  24:	00000513          	li	a0,0
  28:	00000593          	li	a1,0
  2c:	00000613          	li	a2,0
  30:	00000693          	li	a3,0
  34:	00000713          	li	a4,0
  38:	00000793          	li	a5,0
  3c:	00000813          	li	a6,0
  40:	00000893          	li	a7,0
  44:	00000913          	li	s2,0
  48:	00000993          	li	s3,0
  4c:	00000a13          	li	s4,0
  50:	00000a93          	li	s5,0
  54:	00000b13          	li	s6,0
  58:	00000b93          	li	s7,0
  5c:	00000c13          	li	s8,0
  60:	00000c93          	li	s9,0
  64:	00000d13          	li	s10,0
  68:	00000d93          	li	s11,0
  6c:	00000e13          	li	t3,0
  70:	00000e93          	li	t4,0
  74:	00000f13          	li	t5,0
  78:	00000f93          	li	t6,0
  7c:	00101197          	auipc	gp,0x101
  80:	18418193          	addi	gp,gp,388 # 101200 <__global_pointer$>
  84:	00102117          	auipc	sp,0x102
  88:	97c10113          	addi	sp,sp,-1668 # 101a00 <_sp>
  8c:	00000513          	li	a0,0
  90:	00000593          	li	a1,0
  94:	00000097          	auipc	ra,0x0
  98:	00c080e7          	jalr	12(ra) # a0 <main>
  9c:	0000006f          	j	9c <xsize+0x5c>

セクション .text の逆アセンブル:

000000a0 <main>:
  a0:	7ff10297          	auipc	t0,0x7ff10
  a4:	f6028293          	addi	t0,t0,-160 # 7ff10000 <_peripheral>
  a8:	00100d13          	li	s10,1
  ac:	01a2a023          	sw	s10,0(t0)
  b0:	01a2a223          	sw	s10,4(t0)
  b4:	01a2a423          	sw	s10,8(t0)
  b8:	001d0d13          	addi	s10,s10,1
  bc:	00c2ad83          	lw	s11,12(t0)
  c0:	01b2a023          	sw	s11,0(t0)
  c4:	01b2a223          	sw	s11,4(t0)
  c8:	01b2a423          	sw	s11,8(t0)
  cc:	1dc000ef          	jal	ra,2a8 <clear>

000000d0 <LOOP4>:
  d0:	7ff10297          	auipc	t0,0x7ff10
  d4:	f3028293          	addi	t0,t0,-208 # 7ff10000 <_peripheral>
  d8:	01a2a023          	sw	s10,0(t0)
  dc:	01a2a223          	sw	s10,4(t0)
  e0:	01a2a423          	sw	s10,8(t0)
  e4:	001d0d13          	addi	s10,s10,1
  e8:	180000ef          	jal	ra,268 <disp>
  ec:	000005b3          	add	a1,zero,zero

000000f0 <FOR1>:
  f0:	04000293          	li	t0,64
  f4:	0c55d063          	ble	t0,a1,1b4 <FOREND1>
  f8:	00000633          	add	a2,zero,zero

000000fc <FOR2>:
  fc:	02800293          	li	t0,40
 100:	0a565663          	ble	t0,a2,1ac <FOREND2>

00000104 <BODY>:
 104:	000006b3          	add	a3,zero,zero
 108:	fff58593          	addi	a1,a1,-1
 10c:	fff60613          	addi	a2,a2,-1
 110:	0a8000ef          	jal	ra,1b8 <what1>
 114:	00a686b3          	add	a3,a3,a0

00000118 <SKIP1>:
 118:	00160613          	addi	a2,a2,1
 11c:	09c000ef          	jal	ra,1b8 <what1>
 120:	00a686b3          	add	a3,a3,a0

00000124 <SKIP2>:
 124:	00160613          	addi	a2,a2,1
 128:	090000ef          	jal	ra,1b8 <what1>
 12c:	00a686b3          	add	a3,a3,a0

00000130 <SKIP3>:
 130:	00158593          	addi	a1,a1,1
 134:	084000ef          	jal	ra,1b8 <what1>
 138:	00a686b3          	add	a3,a3,a0

0000013c <SKIP4>:
 13c:	ffe60613          	addi	a2,a2,-2
 140:	078000ef          	jal	ra,1b8 <what1>
 144:	00a686b3          	add	a3,a3,a0

00000148 <SKIP5>:
 148:	00158593          	addi	a1,a1,1
 14c:	06c000ef          	jal	ra,1b8 <what1>
 150:	00a686b3          	add	a3,a3,a0

00000154 <SKIP6>:
 154:	00160613          	addi	a2,a2,1
 158:	060000ef          	jal	ra,1b8 <what1>
 15c:	00a686b3          	add	a3,a3,a0

00000160 <SKIP7>:
 160:	00160613          	addi	a2,a2,1
 164:	054000ef          	jal	ra,1b8 <what1>
 168:	00a686b3          	add	a3,a3,a0

0000016c <SKIP8>:
 16c:	fff58593          	addi	a1,a1,-1
 170:	fff60613          	addi	a2,a2,-1
 174:	044000ef          	jal	ra,1b8 <what1>
 178:	00050c63          	beqz	a0,190 <CENTER0>

0000017c <CENTER1>:
 17c:	ffe68293          	addi	t0,a3,-2
 180:	02028063          	beqz	t0,1a0 <SET>
 184:	ffd68293          	addi	t0,a3,-3
 188:	00028c63          	beqz	t0,1a0 <SET>
 18c:	00c0006f          	j	198 <DEL>

00000190 <CENTER0>:
 190:	ffd68293          	addi	t0,a3,-3
 194:	00028663          	beqz	t0,1a0 <SET>

00000198 <DEL>:
 198:	0b0000ef          	jal	ra,248 <SET0>
 19c:	0080006f          	j	1a4 <SKIP10>

000001a0 <SET>:
 1a0:	088000ef          	jal	ra,228 <SET1>

000001a4 <SKIP10>:
 1a4:	00160613          	addi	a2,a2,1
 1a8:	f55ff06f          	j	fc <FOR2>

000001ac <FOREND2>:
 1ac:	00158593          	addi	a1,a1,1
 1b0:	f41ff06f          	j	f0 <FOR1>

000001b4 <FOREND1>:
 1b4:	f1dff06f          	j	d0 <LOOP4>

000001b8 <what1>:
 1b8:	ffc10113          	addi	sp,sp,-4
 1bc:	00112023          	sw	ra,0(sp)
 1c0:	040000ef          	jal	ra,200 <check>
 1c4:	02050863          	beqz	a0,1f4 <return>
 1c8:	00060293          	mv	t0,a2
 1cc:	00429313          	slli	t1,t0,0x4
 1d0:	00030393          	mv	t2,t1
 1d4:	00239393          	slli	t2,t2,0x2
 1d8:	007302b3          	add	t0,t1,t2
 1dc:	00b282b3          	add	t0,t0,a1
 1e0:	7ff00317          	auipc	t1,0x7ff00
 1e4:	e2030313          	addi	t1,t1,-480 # 7ff00000 <_vram_base>
 1e8:	00530333          	add	t1,t1,t0
 1ec:	00030503          	lb	a0,0(t1)
 1f0:	00655513          	srli	a0,a0,0x6

000001f4 <return>:
 1f4:	00012083          	lw	ra,0(sp)
 1f8:	00410113          	addi	sp,sp,4
 1fc:	00008067          	ret

00000200 <check>:
 200:	0205c063          	bltz	a1,220 <check_o>
 204:	04000293          	li	t0,64
 208:	0055dc63          	ble	t0,a1,220 <check_o>
 20c:	00064a63          	bltz	a2,220 <check_o>
 210:	02800293          	li	t0,40
 214:	00565663          	ble	t0,a2,220 <check_o>
 218:	00100513          	li	a0,1
 21c:	00008067          	ret

00000220 <check_o>:
 220:	00000533          	add	a0,zero,zero
 224:	00008067          	ret

00000228 <SET1>:
 228:	00661293          	slli	t0,a2,0x6
 22c:	00b282b3          	add	t0,t0,a1
 230:	00100317          	auipc	t1,0x100
 234:	dd030313          	addi	t1,t1,-560 # 100000 <DATA>
 238:	00530333          	add	t1,t1,t0
 23c:	04000293          	li	t0,64
 240:	00530023          	sb	t0,0(t1)
 244:	00008067          	ret

00000248 <SET0>:
 248:	00661293          	slli	t0,a2,0x6
 24c:	00b282b3          	add	t0,t0,a1
 250:	00100317          	auipc	t1,0x100
 254:	db030313          	addi	t1,t1,-592 # 100000 <DATA>
 258:	00530333          	add	t1,t1,t0
 25c:	02000293          	li	t0,32
 260:	00530023          	sb	t0,0(t1)
 264:	00008067          	ret

00000268 <disp>:
 268:	00100297          	auipc	t0,0x100
 26c:	d9828293          	addi	t0,t0,-616 # 100000 <DATA>
 270:	7ff00317          	auipc	t1,0x7ff00
 274:	d9030313          	addi	t1,t1,-624 # 7ff00000 <_vram_base>
 278:	02800393          	li	t2,40

0000027c <disp1>:
 27c:	04000e13          	li	t3,64

00000280 <disp2>:
 280:	00028e83          	lb	t4,0(t0)
 284:	01d30023          	sb	t4,0(t1)
 288:	00128293          	addi	t0,t0,1
 28c:	00130313          	addi	t1,t1,1
 290:	fffe0e13          	addi	t3,t3,-1
 294:	fe0e16e3          	bnez	t3,280 <disp2>
 298:	01030313          	addi	t1,t1,16
 29c:	fff38393          	addi	t2,t2,-1
 2a0:	fc039ee3          	bnez	t2,27c <disp1>
 2a4:	00008067          	ret

000002a8 <clear>:
 2a8:	7ff00317          	auipc	t1,0x7ff00
 2ac:	d5830313          	addi	t1,t1,-680 # 7ff00000 <_vram_base>
 2b0:	02800393          	li	t2,40

000002b4 <clear1>:
 2b4:	04000e13          	li	t3,64

000002b8 <clear2>:
 2b8:	02000e93          	li	t4,32
 2bc:	01d30023          	sb	t4,0(t1)
 2c0:	00130313          	addi	t1,t1,1
 2c4:	fffe0e13          	addi	t3,t3,-1
 2c8:	fe0e18e3          	bnez	t3,2b8 <clear2>
 2cc:	01030313          	addi	t1,t1,16
 2d0:	fff38393          	addi	t2,t2,-1
 2d4:	fe0390e3          	bnez	t2,2b4 <clear1>
 2d8:	00008067          	ret

000002dc <wait>:
 2dc:	03200293          	li	t0,50

000002e0 <wait2>:
 2e0:	40000313          	li	t1,1024

000002e4 <wait1>:
 2e4:	fff30313          	addi	t1,t1,-1
 2e8:	fe031ee3          	bnez	t1,2e4 <wait1>
 2ec:	fff28293          	addi	t0,t0,-1
 2f0:	fe0298e3          	bnez	t0,2e0 <wait2>
 2f4:	00008067          	ret

セクション .data の逆アセンブル:

00100000 <DATA>:
  100000:	2020                	fld	fs0,64(s0)
  100002:	2020                	fld	fs0,64(s0)
  100004:	2020                	fld	fs0,64(s0)
  100006:	2020                	fld	fs0,64(s0)
  100008:	2020                	fld	fs0,64(s0)
  10000a:	2020                	fld	fs0,64(s0)
  10000c:	2020                	fld	fs0,64(s0)
  10000e:	2020                	fld	fs0,64(s0)
  100010:	2020                	fld	fs0,64(s0)
  100012:	2020                	fld	fs0,64(s0)
  100014:	2020                	fld	fs0,64(s0)
  100016:	2020                	fld	fs0,64(s0)
  100018:	2020                	fld	fs0,64(s0)
  10001a:	2020                	fld	fs0,64(s0)
  10001c:	2020                	fld	fs0,64(s0)
  10001e:	2020                	fld	fs0,64(s0)
  100020:	2020                	fld	fs0,64(s0)
  100022:	2020                	fld	fs0,64(s0)
  100024:	2020                	fld	fs0,64(s0)
  100026:	2020                	fld	fs0,64(s0)
  100028:	2020                	fld	fs0,64(s0)
  10002a:	2020                	fld	fs0,64(s0)
  10002c:	2020                	fld	fs0,64(s0)
  10002e:	2020                	fld	fs0,64(s0)
  100030:	2020                	fld	fs0,64(s0)
  100032:	2020                	fld	fs0,64(s0)
  100034:	2020                	fld	fs0,64(s0)
  100036:	2020                	fld	fs0,64(s0)
  100038:	2020                	fld	fs0,64(s0)
  10003a:	2020                	fld	fs0,64(s0)
  10003c:	2020                	fld	fs0,64(s0)
  10003e:	2020                	fld	fs0,64(s0)
  100040:	2020                	fld	fs0,64(s0)
  100042:	2020                	fld	fs0,64(s0)
  100044:	2020                	fld	fs0,64(s0)
  100046:	2020                	fld	fs0,64(s0)
  100048:	2020                	fld	fs0,64(s0)
  10004a:	2020                	fld	fs0,64(s0)
  10004c:	2020                	fld	fs0,64(s0)
  10004e:	2020                	fld	fs0,64(s0)
  100050:	2020                	fld	fs0,64(s0)
  100052:	2020                	fld	fs0,64(s0)
  100054:	2020                	fld	fs0,64(s0)
  100056:	2020                	fld	fs0,64(s0)
  100058:	2020                	fld	fs0,64(s0)
  10005a:	2020                	fld	fs0,64(s0)
  10005c:	2020                	fld	fs0,64(s0)
  10005e:	2020                	fld	fs0,64(s0)
  100060:	2020                	fld	fs0,64(s0)
  100062:	2020                	fld	fs0,64(s0)
  100064:	2020                	fld	fs0,64(s0)
  100066:	2020                	fld	fs0,64(s0)
  100068:	2020                	fld	fs0,64(s0)
  10006a:	2020                	fld	fs0,64(s0)
  10006c:	2020                	fld	fs0,64(s0)
  10006e:	2020                	fld	fs0,64(s0)
  100070:	2020                	fld	fs0,64(s0)
  100072:	2020                	fld	fs0,64(s0)
  100074:	2020                	fld	fs0,64(s0)
  100076:	2020                	fld	fs0,64(s0)
  100078:	2020                	fld	fs0,64(s0)
  10007a:	2020                	fld	fs0,64(s0)
  10007c:	2020                	fld	fs0,64(s0)
  10007e:	2020                	fld	fs0,64(s0)
  100080:	2020                	fld	fs0,64(s0)
  100082:	2020                	fld	fs0,64(s0)
  100084:	2020                	fld	fs0,64(s0)
  100086:	2020                	fld	fs0,64(s0)
  100088:	2020                	fld	fs0,64(s0)
  10008a:	2020                	fld	fs0,64(s0)
  10008c:	2020                	fld	fs0,64(s0)
  10008e:	2020                	fld	fs0,64(s0)
  100090:	2020                	fld	fs0,64(s0)
  100092:	2020                	fld	fs0,64(s0)
  100094:	2020                	fld	fs0,64(s0)
  100096:	2020                	fld	fs0,64(s0)
  100098:	4020                	lw	s0,64(s0)
  10009a:	2020                	fld	fs0,64(s0)
  10009c:	2020                	fld	fs0,64(s0)
  10009e:	2020                	fld	fs0,64(s0)
  1000a0:	2020                	fld	fs0,64(s0)
  1000a2:	2020                	fld	fs0,64(s0)
  1000a4:	2020                	fld	fs0,64(s0)
  1000a6:	2020                	fld	fs0,64(s0)
  1000a8:	2020                	fld	fs0,64(s0)
  1000aa:	2020                	fld	fs0,64(s0)
  1000ac:	2020                	fld	fs0,64(s0)
  1000ae:	2020                	fld	fs0,64(s0)
  1000b0:	2020                	fld	fs0,64(s0)
  1000b2:	2020                	fld	fs0,64(s0)
  1000b4:	2020                	fld	fs0,64(s0)
  1000b6:	2020                	fld	fs0,64(s0)
  1000b8:	2020                	fld	fs0,64(s0)
  1000ba:	2020                	fld	fs0,64(s0)
  1000bc:	2020                	fld	fs0,64(s0)
  1000be:	2020                	fld	fs0,64(s0)
  1000c0:	2020                	fld	fs0,64(s0)
  1000c2:	2020                	fld	fs0,64(s0)
  1000c4:	2020                	fld	fs0,64(s0)
  1000c6:	2020                	fld	fs0,64(s0)
  1000c8:	2020                	fld	fs0,64(s0)
  1000ca:	2020                	fld	fs0,64(s0)
  1000cc:	2020                	fld	fs0,64(s0)
  1000ce:	2020                	fld	fs0,64(s0)
  1000d0:	2020                	fld	fs0,64(s0)
  1000d2:	2020                	fld	fs0,64(s0)
  1000d4:	2020                	fld	fs0,64(s0)
  1000d6:	4020                	lw	s0,64(s0)
  1000d8:	4020                	lw	s0,64(s0)
  1000da:	2020                	fld	fs0,64(s0)
  1000dc:	2020                	fld	fs0,64(s0)
  1000de:	2020                	fld	fs0,64(s0)
  1000e0:	2020                	fld	fs0,64(s0)
  1000e2:	2020                	fld	fs0,64(s0)
  1000e4:	2020                	fld	fs0,64(s0)
  1000e6:	2020                	fld	fs0,64(s0)
  1000e8:	2020                	fld	fs0,64(s0)
  1000ea:	2020                	fld	fs0,64(s0)
  1000ec:	2020                	fld	fs0,64(s0)
  1000ee:	2020                	fld	fs0,64(s0)
  1000f0:	2020                	fld	fs0,64(s0)
  1000f2:	2020                	fld	fs0,64(s0)
  1000f4:	2020                	fld	fs0,64(s0)
  1000f6:	2020                	fld	fs0,64(s0)
  1000f8:	2020                	fld	fs0,64(s0)
  1000fa:	2020                	fld	fs0,64(s0)
  1000fc:	2020                	fld	fs0,64(s0)
  1000fe:	2020                	fld	fs0,64(s0)
  100100:	2020                	fld	fs0,64(s0)
  100102:	2020                	fld	fs0,64(s0)
  100104:	2020                	fld	fs0,64(s0)
  100106:	2020                	fld	fs0,64(s0)
  100108:	2020                	fld	fs0,64(s0)
  10010a:	2020                	fld	fs0,64(s0)
  10010c:	4020                	lw	s0,64(s0)
  10010e:	2040                	fld	fs0,128(s0)
  100110:	2020                	fld	fs0,64(s0)
  100112:	2020                	fld	fs0,64(s0)
  100114:	4020                	lw	s0,64(s0)
  100116:	2040                	fld	fs0,128(s0)
  100118:	2020                	fld	fs0,64(s0)
  10011a:	2020                	fld	fs0,64(s0)
  10011c:	2020                	fld	fs0,64(s0)
  10011e:	2020                	fld	fs0,64(s0)
  100120:	2020                	fld	fs0,64(s0)
  100122:	4020                	lw	s0,64(s0)
  100124:	2040                	fld	fs0,128(s0)
  100126:	2020                	fld	fs0,64(s0)
  100128:	2020                	fld	fs0,64(s0)
  10012a:	2020                	fld	fs0,64(s0)
  10012c:	2020                	fld	fs0,64(s0)
  10012e:	2020                	fld	fs0,64(s0)
  100130:	2020                	fld	fs0,64(s0)
  100132:	2020                	fld	fs0,64(s0)
  100134:	2020                	fld	fs0,64(s0)
  100136:	2020                	fld	fs0,64(s0)
  100138:	2020                	fld	fs0,64(s0)
  10013a:	2020                	fld	fs0,64(s0)
  10013c:	2020                	fld	fs0,64(s0)
  10013e:	2020                	fld	fs0,64(s0)
  100140:	2020                	fld	fs0,64(s0)
  100142:	2020                	fld	fs0,64(s0)
  100144:	2020                	fld	fs0,64(s0)
  100146:	2020                	fld	fs0,64(s0)
  100148:	2020                	fld	fs0,64(s0)
  10014a:	2020                	fld	fs0,64(s0)
  10014c:	2040                	fld	fs0,128(s0)
  10014e:	2020                	fld	fs0,64(s0)
  100150:	2040                	fld	fs0,128(s0)
  100152:	2020                	fld	fs0,64(s0)
  100154:	4020                	lw	s0,64(s0)
  100156:	2040                	fld	fs0,128(s0)
  100158:	2020                	fld	fs0,64(s0)
  10015a:	2020                	fld	fs0,64(s0)
  10015c:	2020                	fld	fs0,64(s0)
  10015e:	2020                	fld	fs0,64(s0)
  100160:	2020                	fld	fs0,64(s0)
  100162:	4020                	lw	s0,64(s0)
  100164:	2040                	fld	fs0,128(s0)
  100166:	2020                	fld	fs0,64(s0)
  100168:	2020                	fld	fs0,64(s0)
  10016a:	2020                	fld	fs0,64(s0)
  10016c:	2020                	fld	fs0,64(s0)
  10016e:	2020                	fld	fs0,64(s0)
  100170:	2020                	fld	fs0,64(s0)
  100172:	2020                	fld	fs0,64(s0)
  100174:	2020                	fld	fs0,64(s0)
  100176:	2020                	fld	fs0,64(s0)
  100178:	2020                	fld	fs0,64(s0)
  10017a:	2020                	fld	fs0,64(s0)
  10017c:	2020                	fld	fs0,64(s0)
  10017e:	2020                	fld	fs0,64(s0)
  100180:	4020                	lw	s0,64(s0)
  100182:	2040                	fld	fs0,128(s0)
  100184:	2020                	fld	fs0,64(s0)
  100186:	2020                	fld	fs0,64(s0)
  100188:	2020                	fld	fs0,64(s0)
  10018a:	4020                	lw	s0,64(s0)
  10018c:	2020                	fld	fs0,64(s0)
  10018e:	2020                	fld	fs0,64(s0)
  100190:	4020                	lw	s0,64(s0)
  100192:	2020                	fld	fs0,64(s0)
  100194:	4020                	lw	s0,64(s0)
  100196:	2040                	fld	fs0,128(s0)
  100198:	2020                	fld	fs0,64(s0)
  10019a:	2020                	fld	fs0,64(s0)
  10019c:	2020                	fld	fs0,64(s0)
  10019e:	2020                	fld	fs0,64(s0)
  1001a0:	2020                	fld	fs0,64(s0)
  1001a2:	2020                	fld	fs0,64(s0)
  1001a4:	2020                	fld	fs0,64(s0)
  1001a6:	2020                	fld	fs0,64(s0)
  1001a8:	2020                	fld	fs0,64(s0)
  1001aa:	2020                	fld	fs0,64(s0)
  1001ac:	2020                	fld	fs0,64(s0)
  1001ae:	2020                	fld	fs0,64(s0)
  1001b0:	2020                	fld	fs0,64(s0)
  1001b2:	2020                	fld	fs0,64(s0)
  1001b4:	2020                	fld	fs0,64(s0)
  1001b6:	2020                	fld	fs0,64(s0)
  1001b8:	2020                	fld	fs0,64(s0)
  1001ba:	2020                	fld	fs0,64(s0)
  1001bc:	2020                	fld	fs0,64(s0)
  1001be:	2020                	fld	fs0,64(s0)
  1001c0:	4020                	lw	s0,64(s0)
  1001c2:	2040                	fld	fs0,128(s0)
  1001c4:	2020                	fld	fs0,64(s0)
  1001c6:	2020                	fld	fs0,64(s0)
  1001c8:	2020                	fld	fs0,64(s0)
  1001ca:	4020                	lw	s0,64(s0)
  1001cc:	2020                	fld	fs0,64(s0)
  1001ce:	4020                	lw	s0,64(s0)
  1001d0:	4020                	lw	s0,64(s0)
  1001d2:	2040                	fld	fs0,128(s0)
  1001d4:	2020                	fld	fs0,64(s0)
  1001d6:	4020                	lw	s0,64(s0)
  1001d8:	4020                	lw	s0,64(s0)
  1001da:	2020                	fld	fs0,64(s0)
  1001dc:	2020                	fld	fs0,64(s0)
  1001de:	2020                	fld	fs0,64(s0)
  1001e0:	2020                	fld	fs0,64(s0)
  1001e2:	2020                	fld	fs0,64(s0)
  1001e4:	2020                	fld	fs0,64(s0)
  1001e6:	2020                	fld	fs0,64(s0)
  1001e8:	2020                	fld	fs0,64(s0)
  1001ea:	2020                	fld	fs0,64(s0)
  1001ec:	2020                	fld	fs0,64(s0)
  1001ee:	2020                	fld	fs0,64(s0)
  1001f0:	2020                	fld	fs0,64(s0)
  1001f2:	2020                	fld	fs0,64(s0)
  1001f4:	2020                	fld	fs0,64(s0)
  1001f6:	2020                	fld	fs0,64(s0)
  1001f8:	2020                	fld	fs0,64(s0)
  1001fa:	2020                	fld	fs0,64(s0)
  1001fc:	2020                	fld	fs0,64(s0)
  1001fe:	2020                	fld	fs0,64(s0)
  100200:	2020                	fld	fs0,64(s0)
  100202:	2020                	fld	fs0,64(s0)
  100204:	2020                	fld	fs0,64(s0)
  100206:	2020                	fld	fs0,64(s0)
  100208:	2020                	fld	fs0,64(s0)
  10020a:	4020                	lw	s0,64(s0)
  10020c:	2020                	fld	fs0,64(s0)
  10020e:	2020                	fld	fs0,64(s0)
  100210:	4020                	lw	s0,64(s0)
  100212:	2020                	fld	fs0,64(s0)
  100214:	2020                	fld	fs0,64(s0)
  100216:	2020                	fld	fs0,64(s0)
  100218:	4020                	lw	s0,64(s0)
  10021a:	2020                	fld	fs0,64(s0)
  10021c:	2020                	fld	fs0,64(s0)
  10021e:	2020                	fld	fs0,64(s0)
  100220:	2020                	fld	fs0,64(s0)
  100222:	2020                	fld	fs0,64(s0)
  100224:	2020                	fld	fs0,64(s0)
  100226:	2020                	fld	fs0,64(s0)
  100228:	2020                	fld	fs0,64(s0)
  10022a:	2020                	fld	fs0,64(s0)
  10022c:	2020                	fld	fs0,64(s0)
  10022e:	2020                	fld	fs0,64(s0)
  100230:	2020                	fld	fs0,64(s0)
  100232:	2020                	fld	fs0,64(s0)
  100234:	2020                	fld	fs0,64(s0)
  100236:	2020                	fld	fs0,64(s0)
  100238:	2020                	fld	fs0,64(s0)
  10023a:	2020                	fld	fs0,64(s0)
  10023c:	2020                	fld	fs0,64(s0)
  10023e:	2020                	fld	fs0,64(s0)
  100240:	2020                	fld	fs0,64(s0)
  100242:	2020                	fld	fs0,64(s0)
  100244:	2020                	fld	fs0,64(s0)
  100246:	2020                	fld	fs0,64(s0)
  100248:	2020                	fld	fs0,64(s0)
  10024a:	2020                	fld	fs0,64(s0)
  10024c:	2040                	fld	fs0,128(s0)
  10024e:	2020                	fld	fs0,64(s0)
  100250:	2040                	fld	fs0,128(s0)
  100252:	2020                	fld	fs0,64(s0)
  100254:	2020                	fld	fs0,64(s0)
  100256:	2020                	fld	fs0,64(s0)
  100258:	2020                	fld	fs0,64(s0)
  10025a:	2020                	fld	fs0,64(s0)
  10025c:	2020                	fld	fs0,64(s0)
  10025e:	2020                	fld	fs0,64(s0)
  100260:	2020                	fld	fs0,64(s0)
  100262:	2020                	fld	fs0,64(s0)
  100264:	2020                	fld	fs0,64(s0)
  100266:	2020                	fld	fs0,64(s0)
  100268:	2020                	fld	fs0,64(s0)
  10026a:	2020                	fld	fs0,64(s0)
  10026c:	2020                	fld	fs0,64(s0)
  10026e:	2020                	fld	fs0,64(s0)
  100270:	2020                	fld	fs0,64(s0)
  100272:	2020                	fld	fs0,64(s0)
  100274:	2020                	fld	fs0,64(s0)
  100276:	2020                	fld	fs0,64(s0)
  100278:	2020                	fld	fs0,64(s0)
  10027a:	2020                	fld	fs0,64(s0)
  10027c:	2020                	fld	fs0,64(s0)
  10027e:	2020                	fld	fs0,64(s0)
  100280:	2020                	fld	fs0,64(s0)
  100282:	2020                	fld	fs0,64(s0)
  100284:	2020                	fld	fs0,64(s0)
  100286:	2020                	fld	fs0,64(s0)
  100288:	2020                	fld	fs0,64(s0)
  10028a:	2020                	fld	fs0,64(s0)
  10028c:	4020                	lw	s0,64(s0)
  10028e:	2040                	fld	fs0,128(s0)
  100290:	2020                	fld	fs0,64(s0)
  100292:	2020                	fld	fs0,64(s0)
  100294:	2020                	fld	fs0,64(s0)
  100296:	2020                	fld	fs0,64(s0)
  100298:	2020                	fld	fs0,64(s0)
  10029a:	2020                	fld	fs0,64(s0)
  10029c:	2020                	fld	fs0,64(s0)
  10029e:	2020                	fld	fs0,64(s0)
  1002a0:	2020                	fld	fs0,64(s0)
  1002a2:	2020                	fld	fs0,64(s0)
  1002a4:	2020                	fld	fs0,64(s0)
  1002a6:	2020                	fld	fs0,64(s0)
  1002a8:	2020                	fld	fs0,64(s0)
  1002aa:	2020                	fld	fs0,64(s0)
  1002ac:	4020                	lw	s0,64(s0)
  1002ae:	2020                	fld	fs0,64(s0)
  1002b0:	2020                	fld	fs0,64(s0)
  1002b2:	2040                	fld	fs0,128(s0)
  1002b4:	2020                	fld	fs0,64(s0)
  1002b6:	2020                	fld	fs0,64(s0)
  1002b8:	2020                	fld	fs0,64(s0)
  1002ba:	2020                	fld	fs0,64(s0)
  1002bc:	2020                	fld	fs0,64(s0)
  1002be:	2020                	fld	fs0,64(s0)
  1002c0:	2020                	fld	fs0,64(s0)
  1002c2:	2020                	fld	fs0,64(s0)
  1002c4:	2020                	fld	fs0,64(s0)
  1002c6:	2020                	fld	fs0,64(s0)
  1002c8:	2020                	fld	fs0,64(s0)
  1002ca:	2020                	fld	fs0,64(s0)
  1002cc:	2020                	fld	fs0,64(s0)
  1002ce:	2020                	fld	fs0,64(s0)
  1002d0:	2020                	fld	fs0,64(s0)
  1002d2:	2020                	fld	fs0,64(s0)
  1002d4:	2020                	fld	fs0,64(s0)
  1002d6:	2020                	fld	fs0,64(s0)
  1002d8:	2020                	fld	fs0,64(s0)
  1002da:	2020                	fld	fs0,64(s0)
  1002dc:	2020                	fld	fs0,64(s0)
  1002de:	2020                	fld	fs0,64(s0)
  1002e0:	2020                	fld	fs0,64(s0)
  1002e2:	2020                	fld	fs0,64(s0)
  1002e4:	2020                	fld	fs0,64(s0)
  1002e6:	2020                	fld	fs0,64(s0)
  1002e8:	2020                	fld	fs0,64(s0)
  1002ea:	4020                	lw	s0,64(s0)
  1002ec:	2040                	fld	fs0,128(s0)
  1002ee:	4040                	lw	s0,4(s0)
  1002f0:	4040                	lw	s0,4(s0)
  1002f2:	4020                	lw	s0,64(s0)
  1002f4:	2040                	fld	fs0,128(s0)
  1002f6:	2020                	fld	fs0,64(s0)
  1002f8:	2020                	fld	fs0,64(s0)
  1002fa:	2020                	fld	fs0,64(s0)
  1002fc:	2020                	fld	fs0,64(s0)
  1002fe:	2020                	fld	fs0,64(s0)
  100300:	2020                	fld	fs0,64(s0)
  100302:	2020                	fld	fs0,64(s0)
  100304:	2020                	fld	fs0,64(s0)
  100306:	2020                	fld	fs0,64(s0)
  100308:	2020                	fld	fs0,64(s0)
  10030a:	2020                	fld	fs0,64(s0)
  10030c:	2020                	fld	fs0,64(s0)
  10030e:	2020                	fld	fs0,64(s0)
  100310:	2020                	fld	fs0,64(s0)
  100312:	2020                	fld	fs0,64(s0)
  100314:	2020                	fld	fs0,64(s0)
  100316:	2020                	fld	fs0,64(s0)
  100318:	2020                	fld	fs0,64(s0)
  10031a:	2020                	fld	fs0,64(s0)
  10031c:	2020                	fld	fs0,64(s0)
  10031e:	2020                	fld	fs0,64(s0)
  100320:	2020                	fld	fs0,64(s0)
  100322:	2020                	fld	fs0,64(s0)
  100324:	2020                	fld	fs0,64(s0)
  100326:	2020                	fld	fs0,64(s0)
  100328:	2020                	fld	fs0,64(s0)
  10032a:	2020                	fld	fs0,64(s0)
  10032c:	4020                	lw	s0,64(s0)
  10032e:	2020                	fld	fs0,64(s0)
  100330:	2020                	fld	fs0,64(s0)
  100332:	2040                	fld	fs0,128(s0)
  100334:	2020                	fld	fs0,64(s0)
  100336:	2020                	fld	fs0,64(s0)
  100338:	2020                	fld	fs0,64(s0)
  10033a:	2020                	fld	fs0,64(s0)
  10033c:	2020                	fld	fs0,64(s0)
  10033e:	2020                	fld	fs0,64(s0)
  100340:	2020                	fld	fs0,64(s0)
  100342:	2020                	fld	fs0,64(s0)
  100344:	2020                	fld	fs0,64(s0)
  100346:	2020                	fld	fs0,64(s0)
  100348:	2020                	fld	fs0,64(s0)
  10034a:	2020                	fld	fs0,64(s0)
  10034c:	2020                	fld	fs0,64(s0)
  10034e:	2020                	fld	fs0,64(s0)
  100350:	2020                	fld	fs0,64(s0)
  100352:	2020                	fld	fs0,64(s0)
  100354:	2020                	fld	fs0,64(s0)
  100356:	2020                	fld	fs0,64(s0)
  100358:	2020                	fld	fs0,64(s0)
  10035a:	2020                	fld	fs0,64(s0)
  10035c:	2020                	fld	fs0,64(s0)
  10035e:	2020                	fld	fs0,64(s0)
  100360:	2020                	fld	fs0,64(s0)
  100362:	2020                	fld	fs0,64(s0)
  100364:	2020                	fld	fs0,64(s0)
  100366:	2020                	fld	fs0,64(s0)
  100368:	2020                	fld	fs0,64(s0)
  10036a:	2020                	fld	fs0,64(s0)
  10036c:	2020                	fld	fs0,64(s0)
  10036e:	2020                	fld	fs0,64(s0)
  100370:	2020                	fld	fs0,64(s0)
  100372:	2020                	fld	fs0,64(s0)
  100374:	2020                	fld	fs0,64(s0)
  100376:	2020                	fld	fs0,64(s0)
  100378:	2020                	fld	fs0,64(s0)
  10037a:	2020                	fld	fs0,64(s0)
  10037c:	2020                	fld	fs0,64(s0)
  10037e:	2020                	fld	fs0,64(s0)
  100380:	2020                	fld	fs0,64(s0)
  100382:	2020                	fld	fs0,64(s0)
  100384:	2020                	fld	fs0,64(s0)
  100386:	2020                	fld	fs0,64(s0)
  100388:	2020                	fld	fs0,64(s0)
  10038a:	2020                	fld	fs0,64(s0)
  10038c:	2020                	fld	fs0,64(s0)
  10038e:	2020                	fld	fs0,64(s0)
  100390:	2020                	fld	fs0,64(s0)
  100392:	2020                	fld	fs0,64(s0)
  100394:	2020                	fld	fs0,64(s0)
  100396:	2020                	fld	fs0,64(s0)
  100398:	2020                	fld	fs0,64(s0)
  10039a:	2020                	fld	fs0,64(s0)
  10039c:	2020                	fld	fs0,64(s0)
  10039e:	2020                	fld	fs0,64(s0)
  1003a0:	2020                	fld	fs0,64(s0)
  1003a2:	2020                	fld	fs0,64(s0)
  1003a4:	2020                	fld	fs0,64(s0)
  1003a6:	2020                	fld	fs0,64(s0)
  1003a8:	2020                	fld	fs0,64(s0)
  1003aa:	2020                	fld	fs0,64(s0)
  1003ac:	2020                	fld	fs0,64(s0)
  1003ae:	2020                	fld	fs0,64(s0)
  1003b0:	2020                	fld	fs0,64(s0)
  1003b2:	2020                	fld	fs0,64(s0)
  1003b4:	2020                	fld	fs0,64(s0)
  1003b6:	2020                	fld	fs0,64(s0)
  1003b8:	2020                	fld	fs0,64(s0)
  1003ba:	2020                	fld	fs0,64(s0)
  1003bc:	2020                	fld	fs0,64(s0)
  1003be:	2020                	fld	fs0,64(s0)
  1003c0:	2020                	fld	fs0,64(s0)
  1003c2:	2020                	fld	fs0,64(s0)
  1003c4:	2020                	fld	fs0,64(s0)
  1003c6:	2020                	fld	fs0,64(s0)
  1003c8:	2020                	fld	fs0,64(s0)
  1003ca:	2020                	fld	fs0,64(s0)
  1003cc:	2020                	fld	fs0,64(s0)
  1003ce:	2020                	fld	fs0,64(s0)
  1003d0:	2020                	fld	fs0,64(s0)
  1003d2:	2020                	fld	fs0,64(s0)
  1003d4:	2020                	fld	fs0,64(s0)
  1003d6:	2020                	fld	fs0,64(s0)
  1003d8:	2020                	fld	fs0,64(s0)
  1003da:	2020                	fld	fs0,64(s0)
  1003dc:	2020                	fld	fs0,64(s0)
  1003de:	2020                	fld	fs0,64(s0)
  1003e0:	2020                	fld	fs0,64(s0)
  1003e2:	2020                	fld	fs0,64(s0)
  1003e4:	2020                	fld	fs0,64(s0)
  1003e6:	2020                	fld	fs0,64(s0)
  1003e8:	2020                	fld	fs0,64(s0)
  1003ea:	2020                	fld	fs0,64(s0)
  1003ec:	2020                	fld	fs0,64(s0)
  1003ee:	2020                	fld	fs0,64(s0)
  1003f0:	2020                	fld	fs0,64(s0)
  1003f2:	2020                	fld	fs0,64(s0)
  1003f4:	2020                	fld	fs0,64(s0)
  1003f6:	2020                	fld	fs0,64(s0)
  1003f8:	2020                	fld	fs0,64(s0)
  1003fa:	2020                	fld	fs0,64(s0)
  1003fc:	2020                	fld	fs0,64(s0)
  1003fe:	2020                	fld	fs0,64(s0)
  100400:	2020                	fld	fs0,64(s0)
  100402:	2020                	fld	fs0,64(s0)
  100404:	2020                	fld	fs0,64(s0)
  100406:	2020                	fld	fs0,64(s0)
  100408:	2020                	fld	fs0,64(s0)
  10040a:	2020                	fld	fs0,64(s0)
  10040c:	2020                	fld	fs0,64(s0)
  10040e:	2020                	fld	fs0,64(s0)
  100410:	2020                	fld	fs0,64(s0)
  100412:	2020                	fld	fs0,64(s0)
  100414:	2020                	fld	fs0,64(s0)
  100416:	2020                	fld	fs0,64(s0)
  100418:	2020                	fld	fs0,64(s0)
  10041a:	2020                	fld	fs0,64(s0)
  10041c:	2020                	fld	fs0,64(s0)
  10041e:	2020                	fld	fs0,64(s0)
  100420:	2020                	fld	fs0,64(s0)
  100422:	2020                	fld	fs0,64(s0)
  100424:	2020                	fld	fs0,64(s0)
  100426:	2020                	fld	fs0,64(s0)
  100428:	2020                	fld	fs0,64(s0)
  10042a:	2020                	fld	fs0,64(s0)
  10042c:	2020                	fld	fs0,64(s0)
  10042e:	2020                	fld	fs0,64(s0)
  100430:	2020                	fld	fs0,64(s0)
  100432:	2020                	fld	fs0,64(s0)
  100434:	2020                	fld	fs0,64(s0)
  100436:	2020                	fld	fs0,64(s0)
  100438:	2020                	fld	fs0,64(s0)
  10043a:	2020                	fld	fs0,64(s0)
  10043c:	2020                	fld	fs0,64(s0)
  10043e:	2020                	fld	fs0,64(s0)
  100440:	2020                	fld	fs0,64(s0)
  100442:	2020                	fld	fs0,64(s0)
  100444:	2020                	fld	fs0,64(s0)
  100446:	2020                	fld	fs0,64(s0)
  100448:	2020                	fld	fs0,64(s0)
  10044a:	2020                	fld	fs0,64(s0)
  10044c:	2020                	fld	fs0,64(s0)
  10044e:	2020                	fld	fs0,64(s0)
  100450:	2020                	fld	fs0,64(s0)
  100452:	2020                	fld	fs0,64(s0)
  100454:	2020                	fld	fs0,64(s0)
  100456:	2020                	fld	fs0,64(s0)
  100458:	2020                	fld	fs0,64(s0)
  10045a:	2020                	fld	fs0,64(s0)
  10045c:	2020                	fld	fs0,64(s0)
  10045e:	2020                	fld	fs0,64(s0)
  100460:	2020                	fld	fs0,64(s0)
  100462:	2020                	fld	fs0,64(s0)
  100464:	2020                	fld	fs0,64(s0)
  100466:	2020                	fld	fs0,64(s0)
  100468:	2020                	fld	fs0,64(s0)
  10046a:	2020                	fld	fs0,64(s0)
  10046c:	2020                	fld	fs0,64(s0)
  10046e:	2020                	fld	fs0,64(s0)
  100470:	2020                	fld	fs0,64(s0)
  100472:	2020                	fld	fs0,64(s0)
  100474:	2020                	fld	fs0,64(s0)
  100476:	2020                	fld	fs0,64(s0)
  100478:	2020                	fld	fs0,64(s0)
  10047a:	2020                	fld	fs0,64(s0)
  10047c:	2020                	fld	fs0,64(s0)
  10047e:	2020                	fld	fs0,64(s0)
  100480:	2020                	fld	fs0,64(s0)
  100482:	2020                	fld	fs0,64(s0)
  100484:	2020                	fld	fs0,64(s0)
  100486:	2020                	fld	fs0,64(s0)
  100488:	2020                	fld	fs0,64(s0)
  10048a:	2020                	fld	fs0,64(s0)
  10048c:	2020                	fld	fs0,64(s0)
  10048e:	2020                	fld	fs0,64(s0)
  100490:	2020                	fld	fs0,64(s0)
  100492:	2020                	fld	fs0,64(s0)
  100494:	2020                	fld	fs0,64(s0)
  100496:	2020                	fld	fs0,64(s0)
  100498:	2020                	fld	fs0,64(s0)
  10049a:	2020                	fld	fs0,64(s0)
  10049c:	2020                	fld	fs0,64(s0)
  10049e:	2020                	fld	fs0,64(s0)
  1004a0:	2020                	fld	fs0,64(s0)
  1004a2:	2020                	fld	fs0,64(s0)
  1004a4:	2020                	fld	fs0,64(s0)
  1004a6:	2020                	fld	fs0,64(s0)
  1004a8:	2020                	fld	fs0,64(s0)
  1004aa:	2020                	fld	fs0,64(s0)
  1004ac:	2020                	fld	fs0,64(s0)
  1004ae:	2020                	fld	fs0,64(s0)
  1004b0:	2020                	fld	fs0,64(s0)
  1004b2:	2020                	fld	fs0,64(s0)
  1004b4:	2020                	fld	fs0,64(s0)
  1004b6:	2020                	fld	fs0,64(s0)
  1004b8:	2020                	fld	fs0,64(s0)
  1004ba:	2020                	fld	fs0,64(s0)
  1004bc:	2020                	fld	fs0,64(s0)
  1004be:	2020                	fld	fs0,64(s0)
  1004c0:	2020                	fld	fs0,64(s0)
  1004c2:	2020                	fld	fs0,64(s0)
  1004c4:	2020                	fld	fs0,64(s0)
  1004c6:	2020                	fld	fs0,64(s0)
  1004c8:	2020                	fld	fs0,64(s0)
  1004ca:	2020                	fld	fs0,64(s0)
  1004cc:	2020                	fld	fs0,64(s0)
  1004ce:	2020                	fld	fs0,64(s0)
  1004d0:	2020                	fld	fs0,64(s0)
  1004d2:	2020                	fld	fs0,64(s0)
  1004d4:	2020                	fld	fs0,64(s0)
  1004d6:	2020                	fld	fs0,64(s0)
  1004d8:	2020                	fld	fs0,64(s0)
  1004da:	2020                	fld	fs0,64(s0)
  1004dc:	2020                	fld	fs0,64(s0)
  1004de:	2020                	fld	fs0,64(s0)
  1004e0:	2020                	fld	fs0,64(s0)
  1004e2:	2020                	fld	fs0,64(s0)
  1004e4:	2020                	fld	fs0,64(s0)
  1004e6:	2020                	fld	fs0,64(s0)
  1004e8:	2020                	fld	fs0,64(s0)
  1004ea:	2020                	fld	fs0,64(s0)
  1004ec:	2020                	fld	fs0,64(s0)
  1004ee:	2020                	fld	fs0,64(s0)
  1004f0:	2020                	fld	fs0,64(s0)
  1004f2:	2020                	fld	fs0,64(s0)
  1004f4:	2020                	fld	fs0,64(s0)
  1004f6:	2020                	fld	fs0,64(s0)
  1004f8:	2020                	fld	fs0,64(s0)
  1004fa:	2020                	fld	fs0,64(s0)
  1004fc:	2020                	fld	fs0,64(s0)
  1004fe:	2020                	fld	fs0,64(s0)
  100500:	2020                	fld	fs0,64(s0)
  100502:	2020                	fld	fs0,64(s0)
  100504:	2020                	fld	fs0,64(s0)
  100506:	2040                	fld	fs0,128(s0)
  100508:	2020                	fld	fs0,64(s0)
  10050a:	2020                	fld	fs0,64(s0)
  10050c:	2020                	fld	fs0,64(s0)
  10050e:	2020                	fld	fs0,64(s0)
  100510:	2020                	fld	fs0,64(s0)
  100512:	2020                	fld	fs0,64(s0)
  100514:	2020                	fld	fs0,64(s0)
  100516:	2020                	fld	fs0,64(s0)
  100518:	2020                	fld	fs0,64(s0)
  10051a:	2020                	fld	fs0,64(s0)
  10051c:	2020                	fld	fs0,64(s0)
  10051e:	2020                	fld	fs0,64(s0)
  100520:	2020                	fld	fs0,64(s0)
  100522:	2020                	fld	fs0,64(s0)
  100524:	2020                	fld	fs0,64(s0)
  100526:	2020                	fld	fs0,64(s0)
  100528:	2020                	fld	fs0,64(s0)
  10052a:	2020                	fld	fs0,64(s0)
  10052c:	2020                	fld	fs0,64(s0)
  10052e:	2020                	fld	fs0,64(s0)
  100530:	2020                	fld	fs0,64(s0)
  100532:	2020                	fld	fs0,64(s0)
  100534:	2020                	fld	fs0,64(s0)
  100536:	2020                	fld	fs0,64(s0)
  100538:	2020                	fld	fs0,64(s0)
  10053a:	2020                	fld	fs0,64(s0)
  10053c:	2020                	fld	fs0,64(s0)
  10053e:	2020                	fld	fs0,64(s0)
  100540:	2020                	fld	fs0,64(s0)
  100542:	2020                	fld	fs0,64(s0)
  100544:	2020                	fld	fs0,64(s0)
  100546:	2040                	fld	fs0,128(s0)
  100548:	2020                	fld	fs0,64(s0)
  10054a:	2020                	fld	fs0,64(s0)
  10054c:	2020                	fld	fs0,64(s0)
  10054e:	2020                	fld	fs0,64(s0)
  100550:	2020                	fld	fs0,64(s0)
  100552:	2020                	fld	fs0,64(s0)
  100554:	2020                	fld	fs0,64(s0)
  100556:	2020                	fld	fs0,64(s0)
  100558:	2020                	fld	fs0,64(s0)
  10055a:	2020                	fld	fs0,64(s0)
  10055c:	2020                	fld	fs0,64(s0)
  10055e:	2020                	fld	fs0,64(s0)
  100560:	2020                	fld	fs0,64(s0)
  100562:	2020                	fld	fs0,64(s0)
  100564:	2020                	fld	fs0,64(s0)
  100566:	2020                	fld	fs0,64(s0)
  100568:	2020                	fld	fs0,64(s0)
  10056a:	2020                	fld	fs0,64(s0)
  10056c:	2020                	fld	fs0,64(s0)
  10056e:	2020                	fld	fs0,64(s0)
  100570:	2020                	fld	fs0,64(s0)
  100572:	2020                	fld	fs0,64(s0)
  100574:	2020                	fld	fs0,64(s0)
  100576:	2020                	fld	fs0,64(s0)
  100578:	2020                	fld	fs0,64(s0)
  10057a:	2020                	fld	fs0,64(s0)
  10057c:	2020                	fld	fs0,64(s0)
  10057e:	2020                	fld	fs0,64(s0)
  100580:	2020                	fld	fs0,64(s0)
  100582:	2020                	fld	fs0,64(s0)
  100584:	2020                	fld	fs0,64(s0)
  100586:	2040                	fld	fs0,128(s0)
  100588:	2020                	fld	fs0,64(s0)
  10058a:	2020                	fld	fs0,64(s0)
  10058c:	2020                	fld	fs0,64(s0)
  10058e:	2020                	fld	fs0,64(s0)
  100590:	2020                	fld	fs0,64(s0)
  100592:	2020                	fld	fs0,64(s0)
  100594:	2020                	fld	fs0,64(s0)
  100596:	2020                	fld	fs0,64(s0)
  100598:	2020                	fld	fs0,64(s0)
  10059a:	2020                	fld	fs0,64(s0)
  10059c:	2020                	fld	fs0,64(s0)
  10059e:	2020                	fld	fs0,64(s0)
  1005a0:	2020                	fld	fs0,64(s0)
  1005a2:	2020                	fld	fs0,64(s0)
  1005a4:	2020                	fld	fs0,64(s0)
  1005a6:	2020                	fld	fs0,64(s0)
  1005a8:	2020                	fld	fs0,64(s0)
  1005aa:	2020                	fld	fs0,64(s0)
  1005ac:	2020                	fld	fs0,64(s0)
  1005ae:	2020                	fld	fs0,64(s0)
  1005b0:	2020                	fld	fs0,64(s0)
  1005b2:	2020                	fld	fs0,64(s0)
  1005b4:	2020                	fld	fs0,64(s0)
  1005b6:	2020                	fld	fs0,64(s0)
  1005b8:	2020                	fld	fs0,64(s0)
  1005ba:	2020                	fld	fs0,64(s0)
  1005bc:	2020                	fld	fs0,64(s0)
  1005be:	2020                	fld	fs0,64(s0)
  1005c0:	2020                	fld	fs0,64(s0)
  1005c2:	2020                	fld	fs0,64(s0)
  1005c4:	2020                	fld	fs0,64(s0)
  1005c6:	2020                	fld	fs0,64(s0)
  1005c8:	2020                	fld	fs0,64(s0)
  1005ca:	2020                	fld	fs0,64(s0)
  1005cc:	2020                	fld	fs0,64(s0)
  1005ce:	2020                	fld	fs0,64(s0)
  1005d0:	2020                	fld	fs0,64(s0)
  1005d2:	2020                	fld	fs0,64(s0)
  1005d4:	2020                	fld	fs0,64(s0)
  1005d6:	2020                	fld	fs0,64(s0)
  1005d8:	2020                	fld	fs0,64(s0)
  1005da:	2020                	fld	fs0,64(s0)
  1005dc:	2020                	fld	fs0,64(s0)
  1005de:	2020                	fld	fs0,64(s0)
  1005e0:	2020                	fld	fs0,64(s0)
  1005e2:	2020                	fld	fs0,64(s0)
  1005e4:	2020                	fld	fs0,64(s0)
  1005e6:	2020                	fld	fs0,64(s0)
  1005e8:	2020                	fld	fs0,64(s0)
  1005ea:	2020                	fld	fs0,64(s0)
  1005ec:	2020                	fld	fs0,64(s0)
  1005ee:	2020                	fld	fs0,64(s0)
  1005f0:	2020                	fld	fs0,64(s0)
  1005f2:	2020                	fld	fs0,64(s0)
  1005f4:	2020                	fld	fs0,64(s0)
  1005f6:	2020                	fld	fs0,64(s0)
  1005f8:	2020                	fld	fs0,64(s0)
  1005fa:	2020                	fld	fs0,64(s0)
  1005fc:	2020                	fld	fs0,64(s0)
  1005fe:	2020                	fld	fs0,64(s0)
  100600:	2020                	fld	fs0,64(s0)
  100602:	2020                	fld	fs0,64(s0)
  100604:	2020                	fld	fs0,64(s0)
  100606:	2020                	fld	fs0,64(s0)
  100608:	2020                	fld	fs0,64(s0)
  10060a:	2020                	fld	fs0,64(s0)
  10060c:	2020                	fld	fs0,64(s0)
  10060e:	2020                	fld	fs0,64(s0)
  100610:	2020                	fld	fs0,64(s0)
  100612:	2020                	fld	fs0,64(s0)
  100614:	2020                	fld	fs0,64(s0)
  100616:	2020                	fld	fs0,64(s0)
  100618:	2020                	fld	fs0,64(s0)
  10061a:	2020                	fld	fs0,64(s0)
  10061c:	2020                	fld	fs0,64(s0)
  10061e:	2020                	fld	fs0,64(s0)
  100620:	2020                	fld	fs0,64(s0)
  100622:	2020                	fld	fs0,64(s0)
  100624:	2020                	fld	fs0,64(s0)
  100626:	2020                	fld	fs0,64(s0)
  100628:	2020                	fld	fs0,64(s0)
  10062a:	2020                	fld	fs0,64(s0)
  10062c:	2020                	fld	fs0,64(s0)
  10062e:	2020                	fld	fs0,64(s0)
  100630:	2020                	fld	fs0,64(s0)
  100632:	2020                	fld	fs0,64(s0)
  100634:	2020                	fld	fs0,64(s0)
  100636:	2020                	fld	fs0,64(s0)
  100638:	2020                	fld	fs0,64(s0)
  10063a:	2020                	fld	fs0,64(s0)
  10063c:	2020                	fld	fs0,64(s0)
  10063e:	2020                	fld	fs0,64(s0)
  100640:	2020                	fld	fs0,64(s0)
  100642:	2020                	fld	fs0,64(s0)
  100644:	2020                	fld	fs0,64(s0)
  100646:	2020                	fld	fs0,64(s0)
  100648:	2020                	fld	fs0,64(s0)
  10064a:	2020                	fld	fs0,64(s0)
  10064c:	2020                	fld	fs0,64(s0)
  10064e:	2020                	fld	fs0,64(s0)
  100650:	2020                	fld	fs0,64(s0)
  100652:	2020                	fld	fs0,64(s0)
  100654:	2020                	fld	fs0,64(s0)
  100656:	2020                	fld	fs0,64(s0)
  100658:	2020                	fld	fs0,64(s0)
  10065a:	2020                	fld	fs0,64(s0)
  10065c:	2020                	fld	fs0,64(s0)
  10065e:	2020                	fld	fs0,64(s0)
  100660:	2020                	fld	fs0,64(s0)
  100662:	2020                	fld	fs0,64(s0)
  100664:	2020                	fld	fs0,64(s0)
  100666:	2020                	fld	fs0,64(s0)
  100668:	2020                	fld	fs0,64(s0)
  10066a:	2020                	fld	fs0,64(s0)
  10066c:	2020                	fld	fs0,64(s0)
  10066e:	2020                	fld	fs0,64(s0)
  100670:	2020                	fld	fs0,64(s0)
  100672:	2020                	fld	fs0,64(s0)
  100674:	2020                	fld	fs0,64(s0)
  100676:	2020                	fld	fs0,64(s0)
  100678:	2020                	fld	fs0,64(s0)
  10067a:	2020                	fld	fs0,64(s0)
  10067c:	2020                	fld	fs0,64(s0)
  10067e:	2020                	fld	fs0,64(s0)
  100680:	2020                	fld	fs0,64(s0)
  100682:	2020                	fld	fs0,64(s0)
  100684:	2020                	fld	fs0,64(s0)
  100686:	2020                	fld	fs0,64(s0)
  100688:	2020                	fld	fs0,64(s0)
  10068a:	2020                	fld	fs0,64(s0)
  10068c:	2020                	fld	fs0,64(s0)
  10068e:	2020                	fld	fs0,64(s0)
  100690:	2020                	fld	fs0,64(s0)
  100692:	2020                	fld	fs0,64(s0)
  100694:	2020                	fld	fs0,64(s0)
  100696:	2020                	fld	fs0,64(s0)
  100698:	2020                	fld	fs0,64(s0)
  10069a:	2020                	fld	fs0,64(s0)
  10069c:	2020                	fld	fs0,64(s0)
  10069e:	2020                	fld	fs0,64(s0)
  1006a0:	2020                	fld	fs0,64(s0)
  1006a2:	2020                	fld	fs0,64(s0)
  1006a4:	2020                	fld	fs0,64(s0)
  1006a6:	2020                	fld	fs0,64(s0)
  1006a8:	2020                	fld	fs0,64(s0)
  1006aa:	2020                	fld	fs0,64(s0)
  1006ac:	2020                	fld	fs0,64(s0)
  1006ae:	2020                	fld	fs0,64(s0)
  1006b0:	2020                	fld	fs0,64(s0)
  1006b2:	2020                	fld	fs0,64(s0)
  1006b4:	2020                	fld	fs0,64(s0)
  1006b6:	2020                	fld	fs0,64(s0)
  1006b8:	2020                	fld	fs0,64(s0)
  1006ba:	2020                	fld	fs0,64(s0)
  1006bc:	2020                	fld	fs0,64(s0)
  1006be:	2020                	fld	fs0,64(s0)
  1006c0:	2020                	fld	fs0,64(s0)
  1006c2:	2020                	fld	fs0,64(s0)
  1006c4:	2020                	fld	fs0,64(s0)
  1006c6:	2020                	fld	fs0,64(s0)
  1006c8:	2020                	fld	fs0,64(s0)
  1006ca:	2020                	fld	fs0,64(s0)
  1006cc:	2020                	fld	fs0,64(s0)
  1006ce:	2020                	fld	fs0,64(s0)
  1006d0:	2020                	fld	fs0,64(s0)
  1006d2:	2020                	fld	fs0,64(s0)
  1006d4:	2020                	fld	fs0,64(s0)
  1006d6:	2020                	fld	fs0,64(s0)
  1006d8:	2020                	fld	fs0,64(s0)
  1006da:	2020                	fld	fs0,64(s0)
  1006dc:	2020                	fld	fs0,64(s0)
  1006de:	2020                	fld	fs0,64(s0)
  1006e0:	2020                	fld	fs0,64(s0)
  1006e2:	2020                	fld	fs0,64(s0)
  1006e4:	2020                	fld	fs0,64(s0)
  1006e6:	2020                	fld	fs0,64(s0)
  1006e8:	2020                	fld	fs0,64(s0)
  1006ea:	2020                	fld	fs0,64(s0)
  1006ec:	2020                	fld	fs0,64(s0)
  1006ee:	2020                	fld	fs0,64(s0)
  1006f0:	2020                	fld	fs0,64(s0)
  1006f2:	2020                	fld	fs0,64(s0)
  1006f4:	2020                	fld	fs0,64(s0)
  1006f6:	2020                	fld	fs0,64(s0)
  1006f8:	2020                	fld	fs0,64(s0)
  1006fa:	2020                	fld	fs0,64(s0)
  1006fc:	2020                	fld	fs0,64(s0)
  1006fe:	2020                	fld	fs0,64(s0)
  100700:	2020                	fld	fs0,64(s0)
  100702:	2020                	fld	fs0,64(s0)
  100704:	2020                	fld	fs0,64(s0)
  100706:	2020                	fld	fs0,64(s0)
  100708:	2020                	fld	fs0,64(s0)
  10070a:	2020                	fld	fs0,64(s0)
  10070c:	2020                	fld	fs0,64(s0)
  10070e:	2020                	fld	fs0,64(s0)
  100710:	2020                	fld	fs0,64(s0)
  100712:	2020                	fld	fs0,64(s0)
  100714:	2020                	fld	fs0,64(s0)
  100716:	2020                	fld	fs0,64(s0)
  100718:	2020                	fld	fs0,64(s0)
  10071a:	2020                	fld	fs0,64(s0)
  10071c:	2020                	fld	fs0,64(s0)
  10071e:	2020                	fld	fs0,64(s0)
  100720:	2020                	fld	fs0,64(s0)
  100722:	2020                	fld	fs0,64(s0)
  100724:	2020                	fld	fs0,64(s0)
  100726:	2020                	fld	fs0,64(s0)
  100728:	2020                	fld	fs0,64(s0)
  10072a:	2020                	fld	fs0,64(s0)
  10072c:	2020                	fld	fs0,64(s0)
  10072e:	2020                	fld	fs0,64(s0)
  100730:	2020                	fld	fs0,64(s0)
  100732:	2020                	fld	fs0,64(s0)
  100734:	2020                	fld	fs0,64(s0)
  100736:	2020                	fld	fs0,64(s0)
  100738:	2020                	fld	fs0,64(s0)
  10073a:	2020                	fld	fs0,64(s0)
  10073c:	2020                	fld	fs0,64(s0)
  10073e:	2020                	fld	fs0,64(s0)
  100740:	2020                	fld	fs0,64(s0)
  100742:	2020                	fld	fs0,64(s0)
  100744:	2020                	fld	fs0,64(s0)
  100746:	2020                	fld	fs0,64(s0)
  100748:	2020                	fld	fs0,64(s0)
  10074a:	2020                	fld	fs0,64(s0)
  10074c:	2020                	fld	fs0,64(s0)
  10074e:	2020                	fld	fs0,64(s0)
  100750:	2020                	fld	fs0,64(s0)
  100752:	2020                	fld	fs0,64(s0)
  100754:	2020                	fld	fs0,64(s0)
  100756:	2020                	fld	fs0,64(s0)
  100758:	2020                	fld	fs0,64(s0)
  10075a:	2020                	fld	fs0,64(s0)
  10075c:	2020                	fld	fs0,64(s0)
  10075e:	2020                	fld	fs0,64(s0)
  100760:	2020                	fld	fs0,64(s0)
  100762:	2020                	fld	fs0,64(s0)
  100764:	2020                	fld	fs0,64(s0)
  100766:	2020                	fld	fs0,64(s0)
  100768:	2020                	fld	fs0,64(s0)
  10076a:	2020                	fld	fs0,64(s0)
  10076c:	2020                	fld	fs0,64(s0)
  10076e:	2020                	fld	fs0,64(s0)
  100770:	2020                	fld	fs0,64(s0)
  100772:	2020                	fld	fs0,64(s0)
  100774:	2020                	fld	fs0,64(s0)
  100776:	2020                	fld	fs0,64(s0)
  100778:	2020                	fld	fs0,64(s0)
  10077a:	2020                	fld	fs0,64(s0)
  10077c:	2020                	fld	fs0,64(s0)
  10077e:	2020                	fld	fs0,64(s0)
  100780:	2020                	fld	fs0,64(s0)
  100782:	2020                	fld	fs0,64(s0)
  100784:	2020                	fld	fs0,64(s0)
  100786:	2020                	fld	fs0,64(s0)
  100788:	2020                	fld	fs0,64(s0)
  10078a:	2020                	fld	fs0,64(s0)
  10078c:	2020                	fld	fs0,64(s0)
  10078e:	2020                	fld	fs0,64(s0)
  100790:	2020                	fld	fs0,64(s0)
  100792:	2020                	fld	fs0,64(s0)
  100794:	2020                	fld	fs0,64(s0)
  100796:	2020                	fld	fs0,64(s0)
  100798:	2020                	fld	fs0,64(s0)
  10079a:	2020                	fld	fs0,64(s0)
  10079c:	2020                	fld	fs0,64(s0)
  10079e:	2020                	fld	fs0,64(s0)
  1007a0:	2020                	fld	fs0,64(s0)
  1007a2:	2020                	fld	fs0,64(s0)
  1007a4:	2020                	fld	fs0,64(s0)
  1007a6:	2020                	fld	fs0,64(s0)
  1007a8:	2020                	fld	fs0,64(s0)
  1007aa:	2020                	fld	fs0,64(s0)
  1007ac:	2020                	fld	fs0,64(s0)
  1007ae:	2020                	fld	fs0,64(s0)
  1007b0:	2020                	fld	fs0,64(s0)
  1007b2:	2020                	fld	fs0,64(s0)
  1007b4:	2020                	fld	fs0,64(s0)
  1007b6:	2020                	fld	fs0,64(s0)
  1007b8:	2020                	fld	fs0,64(s0)
  1007ba:	2020                	fld	fs0,64(s0)
  1007bc:	2020                	fld	fs0,64(s0)
  1007be:	2020                	fld	fs0,64(s0)
  1007c0:	2020                	fld	fs0,64(s0)
  1007c2:	2020                	fld	fs0,64(s0)
  1007c4:	2020                	fld	fs0,64(s0)
  1007c6:	2020                	fld	fs0,64(s0)
  1007c8:	2020                	fld	fs0,64(s0)
  1007ca:	2020                	fld	fs0,64(s0)
  1007cc:	2020                	fld	fs0,64(s0)
  1007ce:	2020                	fld	fs0,64(s0)
  1007d0:	2020                	fld	fs0,64(s0)
  1007d2:	2020                	fld	fs0,64(s0)
  1007d4:	2020                	fld	fs0,64(s0)
  1007d6:	2020                	fld	fs0,64(s0)
  1007d8:	2020                	fld	fs0,64(s0)
  1007da:	2020                	fld	fs0,64(s0)
  1007dc:	2020                	fld	fs0,64(s0)
  1007de:	2020                	fld	fs0,64(s0)
  1007e0:	2020                	fld	fs0,64(s0)
  1007e2:	2020                	fld	fs0,64(s0)
  1007e4:	2020                	fld	fs0,64(s0)
  1007e6:	2020                	fld	fs0,64(s0)
  1007e8:	2020                	fld	fs0,64(s0)
  1007ea:	2020                	fld	fs0,64(s0)
  1007ec:	2020                	fld	fs0,64(s0)
  1007ee:	2020                	fld	fs0,64(s0)
  1007f0:	2020                	fld	fs0,64(s0)
  1007f2:	2020                	fld	fs0,64(s0)
  1007f4:	2020                	fld	fs0,64(s0)
  1007f6:	2020                	fld	fs0,64(s0)
  1007f8:	2020                	fld	fs0,64(s0)
  1007fa:	2020                	fld	fs0,64(s0)
  1007fc:	2020                	fld	fs0,64(s0)
  1007fe:	2020                	fld	fs0,64(s0)
  100800:	2020                	fld	fs0,64(s0)
  100802:	2020                	fld	fs0,64(s0)
  100804:	2020                	fld	fs0,64(s0)
  100806:	2020                	fld	fs0,64(s0)
  100808:	2020                	fld	fs0,64(s0)
  10080a:	2020                	fld	fs0,64(s0)
  10080c:	2020                	fld	fs0,64(s0)
  10080e:	2020                	fld	fs0,64(s0)
  100810:	2020                	fld	fs0,64(s0)
  100812:	2020                	fld	fs0,64(s0)
  100814:	2020                	fld	fs0,64(s0)
  100816:	2020                	fld	fs0,64(s0)
  100818:	2020                	fld	fs0,64(s0)
  10081a:	2020                	fld	fs0,64(s0)
  10081c:	2020                	fld	fs0,64(s0)
  10081e:	2020                	fld	fs0,64(s0)
  100820:	2020                	fld	fs0,64(s0)
  100822:	2020                	fld	fs0,64(s0)
  100824:	2020                	fld	fs0,64(s0)
  100826:	2020                	fld	fs0,64(s0)
  100828:	2020                	fld	fs0,64(s0)
  10082a:	2020                	fld	fs0,64(s0)
  10082c:	2020                	fld	fs0,64(s0)
  10082e:	2020                	fld	fs0,64(s0)
  100830:	2020                	fld	fs0,64(s0)
  100832:	2020                	fld	fs0,64(s0)
  100834:	2020                	fld	fs0,64(s0)
  100836:	2020                	fld	fs0,64(s0)
  100838:	2020                	fld	fs0,64(s0)
  10083a:	2020                	fld	fs0,64(s0)
  10083c:	2020                	fld	fs0,64(s0)
  10083e:	2020                	fld	fs0,64(s0)
  100840:	2020                	fld	fs0,64(s0)
  100842:	2020                	fld	fs0,64(s0)
  100844:	2020                	fld	fs0,64(s0)
  100846:	2020                	fld	fs0,64(s0)
  100848:	2020                	fld	fs0,64(s0)
  10084a:	2020                	fld	fs0,64(s0)
  10084c:	2020                	fld	fs0,64(s0)
  10084e:	2020                	fld	fs0,64(s0)
  100850:	2020                	fld	fs0,64(s0)
  100852:	2020                	fld	fs0,64(s0)
  100854:	2020                	fld	fs0,64(s0)
  100856:	2020                	fld	fs0,64(s0)
  100858:	2020                	fld	fs0,64(s0)
  10085a:	2020                	fld	fs0,64(s0)
  10085c:	2020                	fld	fs0,64(s0)
  10085e:	2020                	fld	fs0,64(s0)
  100860:	2020                	fld	fs0,64(s0)
  100862:	2020                	fld	fs0,64(s0)
  100864:	2020                	fld	fs0,64(s0)
  100866:	2020                	fld	fs0,64(s0)
  100868:	2020                	fld	fs0,64(s0)
  10086a:	2020                	fld	fs0,64(s0)
  10086c:	2020                	fld	fs0,64(s0)
  10086e:	2020                	fld	fs0,64(s0)
  100870:	2020                	fld	fs0,64(s0)
  100872:	2020                	fld	fs0,64(s0)
  100874:	2020                	fld	fs0,64(s0)
  100876:	2020                	fld	fs0,64(s0)
  100878:	2020                	fld	fs0,64(s0)
  10087a:	2020                	fld	fs0,64(s0)
  10087c:	2020                	fld	fs0,64(s0)
  10087e:	2020                	fld	fs0,64(s0)
  100880:	2020                	fld	fs0,64(s0)
  100882:	2020                	fld	fs0,64(s0)
  100884:	2020                	fld	fs0,64(s0)
  100886:	2020                	fld	fs0,64(s0)
  100888:	2020                	fld	fs0,64(s0)
  10088a:	2020                	fld	fs0,64(s0)
  10088c:	2020                	fld	fs0,64(s0)
  10088e:	2020                	fld	fs0,64(s0)
  100890:	2020                	fld	fs0,64(s0)
  100892:	2020                	fld	fs0,64(s0)
  100894:	2020                	fld	fs0,64(s0)
  100896:	2020                	fld	fs0,64(s0)
  100898:	2020                	fld	fs0,64(s0)
  10089a:	2020                	fld	fs0,64(s0)
  10089c:	2020                	fld	fs0,64(s0)
  10089e:	2020                	fld	fs0,64(s0)
  1008a0:	2020                	fld	fs0,64(s0)
  1008a2:	2020                	fld	fs0,64(s0)
  1008a4:	2020                	fld	fs0,64(s0)
  1008a6:	2020                	fld	fs0,64(s0)
  1008a8:	2020                	fld	fs0,64(s0)
  1008aa:	2020                	fld	fs0,64(s0)
  1008ac:	2020                	fld	fs0,64(s0)
  1008ae:	2020                	fld	fs0,64(s0)
  1008b0:	2020                	fld	fs0,64(s0)
  1008b2:	2020                	fld	fs0,64(s0)
  1008b4:	2020                	fld	fs0,64(s0)
  1008b6:	2020                	fld	fs0,64(s0)
  1008b8:	2020                	fld	fs0,64(s0)
  1008ba:	2020                	fld	fs0,64(s0)
  1008bc:	2020                	fld	fs0,64(s0)
  1008be:	2020                	fld	fs0,64(s0)
  1008c0:	2020                	fld	fs0,64(s0)
  1008c2:	2020                	fld	fs0,64(s0)
  1008c4:	2020                	fld	fs0,64(s0)
  1008c6:	2020                	fld	fs0,64(s0)
  1008c8:	2020                	fld	fs0,64(s0)
  1008ca:	2020                	fld	fs0,64(s0)
  1008cc:	2020                	fld	fs0,64(s0)
  1008ce:	2020                	fld	fs0,64(s0)
  1008d0:	2020                	fld	fs0,64(s0)
  1008d2:	2020                	fld	fs0,64(s0)
  1008d4:	2020                	fld	fs0,64(s0)
  1008d6:	2020                	fld	fs0,64(s0)
  1008d8:	2020                	fld	fs0,64(s0)
  1008da:	2020                	fld	fs0,64(s0)
  1008dc:	2020                	fld	fs0,64(s0)
  1008de:	2020                	fld	fs0,64(s0)
  1008e0:	2020                	fld	fs0,64(s0)
  1008e2:	2020                	fld	fs0,64(s0)
  1008e4:	2020                	fld	fs0,64(s0)
  1008e6:	2020                	fld	fs0,64(s0)
  1008e8:	2020                	fld	fs0,64(s0)
  1008ea:	2020                	fld	fs0,64(s0)
  1008ec:	2020                	fld	fs0,64(s0)
  1008ee:	2020                	fld	fs0,64(s0)
  1008f0:	2020                	fld	fs0,64(s0)
  1008f2:	2020                	fld	fs0,64(s0)
  1008f4:	2020                	fld	fs0,64(s0)
  1008f6:	2020                	fld	fs0,64(s0)
  1008f8:	2020                	fld	fs0,64(s0)
  1008fa:	2020                	fld	fs0,64(s0)
  1008fc:	2020                	fld	fs0,64(s0)
  1008fe:	2020                	fld	fs0,64(s0)
  100900:	2020                	fld	fs0,64(s0)
  100902:	2020                	fld	fs0,64(s0)
  100904:	2020                	fld	fs0,64(s0)
  100906:	2020                	fld	fs0,64(s0)
  100908:	2020                	fld	fs0,64(s0)
  10090a:	2020                	fld	fs0,64(s0)
  10090c:	2020                	fld	fs0,64(s0)
  10090e:	2020                	fld	fs0,64(s0)
  100910:	2020                	fld	fs0,64(s0)
  100912:	2020                	fld	fs0,64(s0)
  100914:	2020                	fld	fs0,64(s0)
  100916:	2020                	fld	fs0,64(s0)
  100918:	2020                	fld	fs0,64(s0)
  10091a:	2020                	fld	fs0,64(s0)
  10091c:	2020                	fld	fs0,64(s0)
  10091e:	2020                	fld	fs0,64(s0)
  100920:	2020                	fld	fs0,64(s0)
  100922:	2020                	fld	fs0,64(s0)
  100924:	2020                	fld	fs0,64(s0)
  100926:	2020                	fld	fs0,64(s0)
  100928:	2020                	fld	fs0,64(s0)
  10092a:	2020                	fld	fs0,64(s0)
  10092c:	2020                	fld	fs0,64(s0)
  10092e:	2020                	fld	fs0,64(s0)
  100930:	2020                	fld	fs0,64(s0)
  100932:	2020                	fld	fs0,64(s0)
  100934:	2020                	fld	fs0,64(s0)
  100936:	2020                	fld	fs0,64(s0)
  100938:	2020                	fld	fs0,64(s0)
  10093a:	2020                	fld	fs0,64(s0)
  10093c:	2020                	fld	fs0,64(s0)
  10093e:	2020                	fld	fs0,64(s0)
  100940:	2020                	fld	fs0,64(s0)
  100942:	2020                	fld	fs0,64(s0)
  100944:	2020                	fld	fs0,64(s0)
  100946:	2020                	fld	fs0,64(s0)
  100948:	2020                	fld	fs0,64(s0)
  10094a:	2020                	fld	fs0,64(s0)
  10094c:	2020                	fld	fs0,64(s0)
  10094e:	2020                	fld	fs0,64(s0)
  100950:	2020                	fld	fs0,64(s0)
  100952:	2020                	fld	fs0,64(s0)
  100954:	2020                	fld	fs0,64(s0)
  100956:	2020                	fld	fs0,64(s0)
  100958:	2020                	fld	fs0,64(s0)
  10095a:	2020                	fld	fs0,64(s0)
  10095c:	2020                	fld	fs0,64(s0)
  10095e:	2020                	fld	fs0,64(s0)
  100960:	2020                	fld	fs0,64(s0)
  100962:	2020                	fld	fs0,64(s0)
  100964:	2020                	fld	fs0,64(s0)
  100966:	2020                	fld	fs0,64(s0)
  100968:	2020                	fld	fs0,64(s0)
  10096a:	2020                	fld	fs0,64(s0)
  10096c:	2020                	fld	fs0,64(s0)
  10096e:	2020                	fld	fs0,64(s0)
  100970:	2020                	fld	fs0,64(s0)
  100972:	2020                	fld	fs0,64(s0)
  100974:	2020                	fld	fs0,64(s0)
  100976:	2020                	fld	fs0,64(s0)
  100978:	2020                	fld	fs0,64(s0)
  10097a:	2020                	fld	fs0,64(s0)
  10097c:	2020                	fld	fs0,64(s0)
  10097e:	2020                	fld	fs0,64(s0)
  100980:	2020                	fld	fs0,64(s0)
  100982:	2020                	fld	fs0,64(s0)
  100984:	2020                	fld	fs0,64(s0)
  100986:	2020                	fld	fs0,64(s0)
  100988:	2020                	fld	fs0,64(s0)
  10098a:	2020                	fld	fs0,64(s0)
  10098c:	2020                	fld	fs0,64(s0)
  10098e:	2020                	fld	fs0,64(s0)
  100990:	2020                	fld	fs0,64(s0)
  100992:	2020                	fld	fs0,64(s0)
  100994:	2020                	fld	fs0,64(s0)
  100996:	2020                	fld	fs0,64(s0)
  100998:	2020                	fld	fs0,64(s0)
  10099a:	2020                	fld	fs0,64(s0)
  10099c:	2020                	fld	fs0,64(s0)
  10099e:	2020                	fld	fs0,64(s0)
  1009a0:	2020                	fld	fs0,64(s0)
  1009a2:	2020                	fld	fs0,64(s0)
  1009a4:	2020                	fld	fs0,64(s0)
  1009a6:	2020                	fld	fs0,64(s0)
  1009a8:	2020                	fld	fs0,64(s0)
  1009aa:	2020                	fld	fs0,64(s0)
  1009ac:	2020                	fld	fs0,64(s0)
  1009ae:	2020                	fld	fs0,64(s0)
  1009b0:	2020                	fld	fs0,64(s0)
  1009b2:	2020                	fld	fs0,64(s0)
  1009b4:	2020                	fld	fs0,64(s0)
  1009b6:	2020                	fld	fs0,64(s0)
  1009b8:	2020                	fld	fs0,64(s0)
  1009ba:	2020                	fld	fs0,64(s0)
  1009bc:	2020                	fld	fs0,64(s0)
  1009be:	2020                	fld	fs0,64(s0)
  1009c0:	2020                	fld	fs0,64(s0)
  1009c2:	2020                	fld	fs0,64(s0)
  1009c4:	2020                	fld	fs0,64(s0)
  1009c6:	2020                	fld	fs0,64(s0)
  1009c8:	2020                	fld	fs0,64(s0)
  1009ca:	2020                	fld	fs0,64(s0)
  1009cc:	2020                	fld	fs0,64(s0)
  1009ce:	2020                	fld	fs0,64(s0)
  1009d0:	2020                	fld	fs0,64(s0)
  1009d2:	2020                	fld	fs0,64(s0)
  1009d4:	2020                	fld	fs0,64(s0)
  1009d6:	2020                	fld	fs0,64(s0)
  1009d8:	2020                	fld	fs0,64(s0)
  1009da:	2020                	fld	fs0,64(s0)
  1009dc:	2020                	fld	fs0,64(s0)
  1009de:	2020                	fld	fs0,64(s0)
  1009e0:	2020                	fld	fs0,64(s0)
  1009e2:	2020                	fld	fs0,64(s0)
  1009e4:	2020                	fld	fs0,64(s0)
  1009e6:	2020                	fld	fs0,64(s0)
  1009e8:	2020                	fld	fs0,64(s0)
  1009ea:	2020                	fld	fs0,64(s0)
  1009ec:	2020                	fld	fs0,64(s0)
  1009ee:	2020                	fld	fs0,64(s0)
  1009f0:	2020                	fld	fs0,64(s0)
  1009f2:	2020                	fld	fs0,64(s0)
  1009f4:	2020                	fld	fs0,64(s0)
  1009f6:	2020                	fld	fs0,64(s0)
  1009f8:	2020                	fld	fs0,64(s0)
  1009fa:	2020                	fld	fs0,64(s0)
  1009fc:	2020                	fld	fs0,64(s0)
  1009fe:	2020                	fld	fs0,64(s0)

セクション .stack の逆アセンブル:

00100a00 <_heap_end>:
	...

セクション .uncached_RAM の逆アセンブル:

7ff00000 <_vram_base>:
	...

セクション .stab の逆アセンブル:

00000000 <.stab>:
   0:	0001                	nop
   2:	0000                	unimp
   4:	0000                	unimp
   6:	003500b7          	lui	ra,0x350
   a:	0000                	unimp
   c:	0000000b          	0xb
  10:	0064                	addi	s1,sp,12
  12:	0000                	unimp
  14:	00a0                	addi	s0,sp,72
  16:	0000                	unimp
  18:	0001                	nop
  1a:	0000                	unimp
  1c:	0064                	addi	s1,sp,12
  1e:	0000                	unimp
  20:	00a0                	addi	s0,sp,72
  22:	0000                	unimp
  24:	0000                	unimp
  26:	0000                	unimp
  28:	0044                	addi	s1,sp,4
  2a:	0020                	addi	s0,sp,8
	...
  34:	0044                	addi	s1,sp,4
  36:	0021                	c.nop	8
  38:	0004                	0x4
  3a:	0000                	unimp
  3c:	0000                	unimp
  3e:	0000                	unimp
  40:	0044                	addi	s1,sp,4
  42:	0022                	c.slli	zero,0x8
  44:	0008                	0x8
  46:	0000                	unimp
  48:	0000                	unimp
  4a:	0000                	unimp
  4c:	0044                	addi	s1,sp,4
  4e:	000c0023          	sb	zero,0(s8)
  52:	0000                	unimp
  54:	0000                	unimp
  56:	0000                	unimp
  58:	0044                	addi	s1,sp,4
  5a:	0024                	addi	s1,sp,8
  5c:	0010                	0x10
  5e:	0000                	unimp
  60:	0000                	unimp
  62:	0000                	unimp
  64:	0044                	addi	s1,sp,4
  66:	0025                	c.nop	9
  68:	0014                	0x14
  6a:	0000                	unimp
  6c:	0000                	unimp
  6e:	0000                	unimp
  70:	0044                	addi	s1,sp,4
  72:	0026                	c.slli	zero,0x9
  74:	0018                	0x18
  76:	0000                	unimp
  78:	0000                	unimp
  7a:	0000                	unimp
  7c:	0044                	addi	s1,sp,4
  7e:	001c0027          	0x1c0027
  82:	0000                	unimp
  84:	0000                	unimp
  86:	0000                	unimp
  88:	0044                	addi	s1,sp,4
  8a:	0028                	addi	a0,sp,8
  8c:	0020                	addi	s0,sp,8
  8e:	0000                	unimp
  90:	0000                	unimp
  92:	0000                	unimp
  94:	0044                	addi	s1,sp,4
  96:	0029                	c.nop	10
  98:	0024                	addi	s1,sp,8
  9a:	0000                	unimp
  9c:	0000                	unimp
  9e:	0000                	unimp
  a0:	0044                	addi	s1,sp,4
  a2:	002a                	c.slli	zero,0xa
  a4:	0028                	addi	a0,sp,8
  a6:	0000                	unimp
  a8:	0000                	unimp
  aa:	0000                	unimp
  ac:	0044                	addi	s1,sp,4
  ae:	002c002b          	0x2c002b
  b2:	0000                	unimp
  b4:	0000                	unimp
  b6:	0000                	unimp
  b8:	0044                	addi	s1,sp,4
  ba:	002c                	addi	a1,sp,8
  bc:	0030                	addi	a2,sp,8
  be:	0000                	unimp
  c0:	0000                	unimp
  c2:	0000                	unimp
  c4:	0044                	addi	s1,sp,4
  c6:	002d                	c.nop	11
  c8:	0034                	addi	a3,sp,8
  ca:	0000                	unimp
  cc:	0000                	unimp
  ce:	0000                	unimp
  d0:	0044                	addi	s1,sp,4
  d2:	002e                	c.slli	zero,0xb
  d4:	0038                	addi	a4,sp,8
  d6:	0000                	unimp
  d8:	0000                	unimp
  da:	0000                	unimp
  dc:	0044                	addi	s1,sp,4
  de:	003c002f          	0x3c002f
  e2:	0000                	unimp
  e4:	0000                	unimp
  e6:	0000                	unimp
  e8:	0044                	addi	s1,sp,4
  ea:	0030                	addi	a2,sp,8
  ec:	0040                	addi	s0,sp,4
  ee:	0000                	unimp
  f0:	0000                	unimp
  f2:	0000                	unimp
  f4:	0044                	addi	s1,sp,4
  f6:	0031                	c.nop	12
  f8:	0044                	addi	s1,sp,4
  fa:	0000                	unimp
  fc:	0000                	unimp
  fe:	0000                	unimp
 100:	0044                	addi	s1,sp,4
 102:	0032                	c.slli	zero,0xc
 104:	0048                	addi	a0,sp,4
 106:	0000                	unimp
 108:	0000                	unimp
 10a:	0000                	unimp
 10c:	0044                	addi	s1,sp,4
 10e:	004c0033          	add	zero,s8,tp
 112:	0000                	unimp
 114:	0000                	unimp
 116:	0000                	unimp
 118:	0044                	addi	s1,sp,4
 11a:	0034                	addi	a3,sp,8
 11c:	0050                	addi	a2,sp,4
 11e:	0000                	unimp
 120:	0000                	unimp
 122:	0000                	unimp
 124:	0044                	addi	s1,sp,4
 126:	0035                	c.nop	13
 128:	0054                	addi	a3,sp,4
 12a:	0000                	unimp
 12c:	0000                	unimp
 12e:	0000                	unimp
 130:	0044                	addi	s1,sp,4
 132:	0036                	c.slli	zero,0xd
 134:	0058                	addi	a4,sp,4
 136:	0000                	unimp
 138:	0000                	unimp
 13a:	0000                	unimp
 13c:	0044                	addi	s1,sp,4
 13e:	005c0037          	lui	zero,0x5c0
 142:	0000                	unimp
 144:	0000                	unimp
 146:	0000                	unimp
 148:	0044                	addi	s1,sp,4
 14a:	0038                	addi	a4,sp,8
 14c:	0060                	addi	s0,sp,12
 14e:	0000                	unimp
 150:	0000                	unimp
 152:	0000                	unimp
 154:	0044                	addi	s1,sp,4
 156:	0039                	c.nop	14
 158:	0064                	addi	s1,sp,12
 15a:	0000                	unimp
 15c:	0000                	unimp
 15e:	0000                	unimp
 160:	0044                	addi	s1,sp,4
 162:	003a                	c.slli	zero,0xe
 164:	0068                	addi	a0,sp,12
 166:	0000                	unimp
 168:	0000                	unimp
 16a:	0000                	unimp
 16c:	0044                	addi	s1,sp,4
 16e:	006c003b          	0x6c003b
 172:	0000                	unimp
 174:	0000                	unimp
 176:	0000                	unimp
 178:	0044                	addi	s1,sp,4
 17a:	003c                	addi	a5,sp,8
 17c:	0070                	addi	a2,sp,12
 17e:	0000                	unimp
 180:	0000                	unimp
 182:	0000                	unimp
 184:	0044                	addi	s1,sp,4
 186:	003d                	c.nop	15
 188:	0074                	addi	a3,sp,12
 18a:	0000                	unimp
 18c:	0000                	unimp
 18e:	0000                	unimp
 190:	0044                	addi	s1,sp,4
 192:	003e                	c.slli	zero,0xf
 194:	0078                	addi	a4,sp,12
 196:	0000                	unimp
 198:	0000                	unimp
 19a:	0000                	unimp
 19c:	0044                	addi	s1,sp,4
 19e:	004d                	c.nop	19
 1a0:	007c                	addi	a5,sp,12
 1a2:	0000                	unimp
 1a4:	0000                	unimp
 1a6:	0000                	unimp
 1a8:	0044                	addi	s1,sp,4
 1aa:	0084004f          	fnmadd.s	ft0,fs0,fs0,ft0,rne
 1ae:	0000                	unimp
 1b0:	0000                	unimp
 1b2:	0000                	unimp
 1b4:	0044                	addi	s1,sp,4
 1b6:	008c0057          	0x8c0057
 1ba:	0000                	unimp
 1bc:	0000                	unimp
 1be:	0000                	unimp
 1c0:	0044                	addi	s1,sp,4
 1c2:	0058                	addi	a4,sp,4
 1c4:	0090                	addi	a2,sp,64
 1c6:	0000                	unimp
 1c8:	0000                	unimp
 1ca:	0000                	unimp
 1cc:	0044                	addi	s1,sp,4
 1ce:	0059                	c.nop	22
 1d0:	0094                	addi	a3,sp,64
 1d2:	0000                	unimp
 1d4:	0000                	unimp
 1d6:	0000                	unimp
 1d8:	0044                	addi	s1,sp,4
 1da:	009c005b          	0x9c005b
 1de:	0000                	unimp
 1e0:	0000000b          	0xb
 1e4:	0064                	addi	s1,sp,12
 1e6:	0000                	unimp
 1e8:	00a0                	addi	s0,sp,72
 1ea:	0000                	unimp
 1ec:	002e                	c.slli	zero,0xb
 1ee:	0000                	unimp
 1f0:	0064                	addi	s1,sp,12
 1f2:	0000                	unimp
 1f4:	00a0                	addi	s0,sp,72
 1f6:	0000                	unimp
 1f8:	0000                	unimp
 1fa:	0000                	unimp
 1fc:	0044                	addi	s1,sp,4
 1fe:	000c                	0xc
 200:	00a0                	addi	s0,sp,72
 202:	0000                	unimp
 204:	0000                	unimp
 206:	0000                	unimp
 208:	0044                	addi	s1,sp,4
 20a:	000d                	c.nop	3
 20c:	00a8                	addi	a0,sp,72
 20e:	0000                	unimp
 210:	0000                	unimp
 212:	0000                	unimp
 214:	0044                	addi	s1,sp,4
 216:	000e                	c.slli	zero,0x3
 218:	00ac                	addi	a1,sp,72
 21a:	0000                	unimp
 21c:	0000                	unimp
 21e:	0000                	unimp
 220:	0044                	addi	s1,sp,4
 222:	00b0000f          	fence	unknown,irw
 226:	0000                	unimp
 228:	0000                	unimp
 22a:	0000                	unimp
 22c:	0044                	addi	s1,sp,4
 22e:	0010                	0x10
 230:	00b4                	addi	a3,sp,72
 232:	0000                	unimp
 234:	0000                	unimp
 236:	0000                	unimp
 238:	0044                	addi	s1,sp,4
 23a:	0011                	c.nop	4
 23c:	00b8                	addi	a4,sp,72
 23e:	0000                	unimp
 240:	0000                	unimp
 242:	0000                	unimp
 244:	0044                	addi	s1,sp,4
 246:	0012                	c.slli	zero,0x4
 248:	00bc                	addi	a5,sp,72
 24a:	0000                	unimp
 24c:	0000                	unimp
 24e:	0000                	unimp
 250:	0044                	addi	s1,sp,4
 252:	00c00013          	li	zero,12
 256:	0000                	unimp
 258:	0000                	unimp
 25a:	0000                	unimp
 25c:	0044                	addi	s1,sp,4
 25e:	0014                	0x14
 260:	00c4                	addi	s1,sp,68
 262:	0000                	unimp
 264:	0000                	unimp
 266:	0000                	unimp
 268:	0044                	addi	s1,sp,4
 26a:	0015                	c.nop	5
 26c:	00c8                	addi	a0,sp,68
 26e:	0000                	unimp
 270:	0000                	unimp
 272:	0000                	unimp
 274:	0044                	addi	s1,sp,4
 276:	00cc0017          	auipc	zero,0xcc0
 27a:	0000                	unimp
 27c:	0000                	unimp
 27e:	0000                	unimp
 280:	0044                	addi	s1,sp,4
 282:	001c                	0x1c
 284:	00d0                	addi	a2,sp,68
 286:	0000                	unimp
 288:	0000                	unimp
 28a:	0000                	unimp
 28c:	0044                	addi	s1,sp,4
 28e:	001d                	c.nop	7
 290:	00d8                	addi	a4,sp,68
 292:	0000                	unimp
 294:	0000                	unimp
 296:	0000                	unimp
 298:	0044                	addi	s1,sp,4
 29a:	001e                	c.slli	zero,0x7
 29c:	00dc                	addi	a5,sp,68
 29e:	0000                	unimp
 2a0:	0000                	unimp
 2a2:	0000                	unimp
 2a4:	0044                	addi	s1,sp,4
 2a6:	001f 00e0 0000      	0xe0001f
 2ac:	0000                	unimp
 2ae:	0000                	unimp
 2b0:	0044                	addi	s1,sp,4
 2b2:	0020                	addi	s0,sp,8
 2b4:	00e4                	addi	s1,sp,76
 2b6:	0000                	unimp
 2b8:	0000                	unimp
 2ba:	0000                	unimp
 2bc:	0044                	addi	s1,sp,4
 2be:	0022                	c.slli	zero,0x8
 2c0:	00e8                	addi	a0,sp,76
 2c2:	0000                	unimp
 2c4:	0000                	unimp
 2c6:	0000                	unimp
 2c8:	0044                	addi	s1,sp,4
 2ca:	0029                	c.nop	10
 2cc:	00ec                	addi	a1,sp,76
 2ce:	0000                	unimp
 2d0:	0000                	unimp
 2d2:	0000                	unimp
 2d4:	0044                	addi	s1,sp,4
 2d6:	002a                	c.slli	zero,0xa
 2d8:	00f0                	addi	a2,sp,76
 2da:	0000                	unimp
 2dc:	0000                	unimp
 2de:	0000                	unimp
 2e0:	0044                	addi	s1,sp,4
 2e2:	00f4002b          	0xf4002b
 2e6:	0000                	unimp
 2e8:	0000                	unimp
 2ea:	0000                	unimp
 2ec:	0044                	addi	s1,sp,4
 2ee:	0030                	addi	a2,sp,8
 2f0:	00f8                	addi	a4,sp,76
 2f2:	0000                	unimp
 2f4:	0000                	unimp
 2f6:	0000                	unimp
 2f8:	0044                	addi	s1,sp,4
 2fa:	0031                	c.nop	12
 2fc:	00fc                	addi	a5,sp,76
 2fe:	0000                	unimp
 300:	0000                	unimp
 302:	0000                	unimp
 304:	0044                	addi	s1,sp,4
 306:	0032                	c.slli	zero,0xc
 308:	0100                	addi	s0,sp,128
 30a:	0000                	unimp
 30c:	0000                	unimp
 30e:	0000                	unimp
 310:	0044                	addi	s1,sp,4
 312:	0034                	addi	a3,sp,8
 314:	0104                	addi	s1,sp,128
 316:	0000                	unimp
 318:	0000                	unimp
 31a:	0000                	unimp
 31c:	0044                	addi	s1,sp,4
 31e:	0036                	c.slli	zero,0xd
 320:	0108                	addi	a0,sp,128
 322:	0000                	unimp
 324:	0000                	unimp
 326:	0000                	unimp
 328:	0044                	addi	s1,sp,4
 32a:	010c0037          	lui	zero,0x10c0
 32e:	0000                	unimp
 330:	0000                	unimp
 332:	0000                	unimp
 334:	0044                	addi	s1,sp,4
 336:	0038                	addi	a4,sp,8
 338:	0110                	addi	a2,sp,128
 33a:	0000                	unimp
 33c:	0000                	unimp
 33e:	0000                	unimp
 340:	0044                	addi	s1,sp,4
 342:	0039                	c.nop	14
 344:	0114                	addi	a3,sp,128
 346:	0000                	unimp
 348:	0000                	unimp
 34a:	0000                	unimp
 34c:	0044                	addi	s1,sp,4
 34e:	0118003b          	0x118003b
 352:	0000                	unimp
 354:	0000                	unimp
 356:	0000                	unimp
 358:	0044                	addi	s1,sp,4
 35a:	003c                	addi	a5,sp,8
 35c:	011c                	addi	a5,sp,128
 35e:	0000                	unimp
 360:	0000                	unimp
 362:	0000                	unimp
 364:	0044                	addi	s1,sp,4
 366:	003d                	c.nop	15
 368:	0120                	addi	s0,sp,136
 36a:	0000                	unimp
 36c:	0000                	unimp
 36e:	0000                	unimp
 370:	0044                	addi	s1,sp,4
 372:	0124003f 00000000 	0x124003f
 37a:	0000                	unimp
 37c:	0044                	addi	s1,sp,4
 37e:	0040                	addi	s0,sp,4
 380:	0128                	addi	a0,sp,136
 382:	0000                	unimp
 384:	0000                	unimp
 386:	0000                	unimp
 388:	0044                	addi	s1,sp,4
 38a:	0041                	c.nop	16
 38c:	012c                	addi	a1,sp,136
 38e:	0000                	unimp
 390:	0000                	unimp
 392:	0000                	unimp
 394:	0044                	addi	s1,sp,4
 396:	01300043          	fmadd.s	ft0,ft0,fs3,ft0,rne
 39a:	0000                	unimp
 39c:	0000                	unimp
 39e:	0000                	unimp
 3a0:	0044                	addi	s1,sp,4
 3a2:	0044                	addi	s1,sp,4
 3a4:	0134                	addi	a3,sp,136
 3a6:	0000                	unimp
 3a8:	0000                	unimp
 3aa:	0000                	unimp
 3ac:	0044                	addi	s1,sp,4
 3ae:	0045                	c.nop	17
 3b0:	0138                	addi	a4,sp,136
 3b2:	0000                	unimp
 3b4:	0000                	unimp
 3b6:	0000                	unimp
 3b8:	0044                	addi	s1,sp,4
 3ba:	013c0047          	fmsub.s	ft0,fs8,fs3,ft0,rne
 3be:	0000                	unimp
 3c0:	0000                	unimp
 3c2:	0000                	unimp
 3c4:	0044                	addi	s1,sp,4
 3c6:	0048                	addi	a0,sp,4
 3c8:	0140                	addi	s0,sp,132
 3ca:	0000                	unimp
 3cc:	0000                	unimp
 3ce:	0000                	unimp
 3d0:	0044                	addi	s1,sp,4
 3d2:	0049                	c.nop	18
 3d4:	0144                	addi	s1,sp,132
 3d6:	0000                	unimp
 3d8:	0000                	unimp
 3da:	0000                	unimp
 3dc:	0044                	addi	s1,sp,4
 3de:	0148004b          	fnmsub.s	ft0,fa6,fs4,ft0,rne
 3e2:	0000                	unimp
 3e4:	0000                	unimp
 3e6:	0000                	unimp
 3e8:	0044                	addi	s1,sp,4
 3ea:	004c                	addi	a1,sp,4
 3ec:	014c                	addi	a1,sp,132
 3ee:	0000                	unimp
 3f0:	0000                	unimp
 3f2:	0000                	unimp
 3f4:	0044                	addi	s1,sp,4
 3f6:	004d                	c.nop	19
 3f8:	0150                	addi	a2,sp,132
 3fa:	0000                	unimp
 3fc:	0000                	unimp
 3fe:	0000                	unimp
 400:	0044                	addi	s1,sp,4
 402:	0154004f          	fnmadd.s	ft0,fs0,fs5,ft0,rne
 406:	0000                	unimp
 408:	0000                	unimp
 40a:	0000                	unimp
 40c:	0044                	addi	s1,sp,4
 40e:	0050                	addi	a2,sp,4
 410:	0158                	addi	a4,sp,132
 412:	0000                	unimp
 414:	0000                	unimp
 416:	0000                	unimp
 418:	0044                	addi	s1,sp,4
 41a:	0051                	c.nop	20
 41c:	015c                	addi	a5,sp,132
 41e:	0000                	unimp
 420:	0000                	unimp
 422:	0000                	unimp
 424:	0044                	addi	s1,sp,4
 426:	01600053          	fadd.s	ft0,ft0,fs6,rne
 42a:	0000                	unimp
 42c:	0000                	unimp
 42e:	0000                	unimp
 430:	0044                	addi	s1,sp,4
 432:	0054                	addi	a3,sp,4
 434:	0164                	addi	s1,sp,140
 436:	0000                	unimp
 438:	0000                	unimp
 43a:	0000                	unimp
 43c:	0044                	addi	s1,sp,4
 43e:	0055                	c.nop	21
 440:	0168                	addi	a0,sp,140
 442:	0000                	unimp
 444:	0000                	unimp
 446:	0000                	unimp
 448:	0044                	addi	s1,sp,4
 44a:	016c0057          	0x16c0057
 44e:	0000                	unimp
 450:	0000                	unimp
 452:	0000                	unimp
 454:	0044                	addi	s1,sp,4
 456:	0058                	addi	a4,sp,4
 458:	0170                	addi	a2,sp,140
 45a:	0000                	unimp
 45c:	0000                	unimp
 45e:	0000                	unimp
 460:	0044                	addi	s1,sp,4
 462:	0059                	c.nop	22
 464:	0174                	addi	a3,sp,140
 466:	0000                	unimp
 468:	0000                	unimp
 46a:	0000                	unimp
 46c:	0044                	addi	s1,sp,4
 46e:	005a                	c.slli	zero,0x16
 470:	0178                	addi	a4,sp,140
 472:	0000                	unimp
 474:	0000                	unimp
 476:	0000                	unimp
 478:	0044                	addi	s1,sp,4
 47a:	005c                	addi	a5,sp,4
 47c:	017c                	addi	a5,sp,140
 47e:	0000                	unimp
 480:	0000                	unimp
 482:	0000                	unimp
 484:	0044                	addi	s1,sp,4
 486:	005d                	c.nop	23
 488:	0180                	addi	s0,sp,192
 48a:	0000                	unimp
 48c:	0000                	unimp
 48e:	0000                	unimp
 490:	0044                	addi	s1,sp,4
 492:	005e                	c.slli	zero,0x17
 494:	0184                	addi	s1,sp,192
 496:	0000                	unimp
 498:	0000                	unimp
 49a:	0000                	unimp
 49c:	0044                	addi	s1,sp,4
 49e:	005f 0188 0000      	0x188005f
 4a4:	0000                	unimp
 4a6:	0000                	unimp
 4a8:	0044                	addi	s1,sp,4
 4aa:	0060                	addi	s0,sp,12
 4ac:	018c                	addi	a1,sp,192
 4ae:	0000                	unimp
 4b0:	0000                	unimp
 4b2:	0000                	unimp
 4b4:	0044                	addi	s1,sp,4
 4b6:	0062                	c.slli	zero,0x18
 4b8:	0190                	addi	a2,sp,192
 4ba:	0000                	unimp
 4bc:	0000                	unimp
 4be:	0000                	unimp
 4c0:	0044                	addi	s1,sp,4
 4c2:	01940063          	beq	s0,s9,4c2 <wait1+0x1de>
 4c6:	0000                	unimp
 4c8:	0000                	unimp
 4ca:	0000                	unimp
 4cc:	0044                	addi	s1,sp,4
 4ce:	0065                	c.nop	25
 4d0:	0198                	addi	a4,sp,192
 4d2:	0000                	unimp
 4d4:	0000                	unimp
 4d6:	0000                	unimp
 4d8:	0044                	addi	s1,sp,4
 4da:	0066                	c.slli	zero,0x19
 4dc:	019c                	addi	a5,sp,192
 4de:	0000                	unimp
 4e0:	0000                	unimp
 4e2:	0000                	unimp
 4e4:	0044                	addi	s1,sp,4
 4e6:	0068                	addi	a0,sp,12
 4e8:	01a0                	addi	s0,sp,200
 4ea:	0000                	unimp
 4ec:	0000                	unimp
 4ee:	0000                	unimp
 4f0:	0044                	addi	s1,sp,4
 4f2:	006a                	c.slli	zero,0x1a
 4f4:	01a4                	addi	s1,sp,200
 4f6:	0000                	unimp
 4f8:	0000                	unimp
 4fa:	0000                	unimp
 4fc:	0044                	addi	s1,sp,4
 4fe:	01a8006b          	0x1a8006b
 502:	0000                	unimp
 504:	0000                	unimp
 506:	0000                	unimp
 508:	0044                	addi	s1,sp,4
 50a:	006d                	c.nop	27
 50c:	01ac                	addi	a1,sp,200
 50e:	0000                	unimp
 510:	0000                	unimp
 512:	0000                	unimp
 514:	0044                	addi	s1,sp,4
 516:	006e                	c.slli	zero,0x1b
 518:	01b0                	addi	a2,sp,200
 51a:	0000                	unimp
 51c:	0000                	unimp
 51e:	0000                	unimp
 520:	0044                	addi	s1,sp,4
 522:	0071                	c.nop	28
 524:	01b4                	addi	a3,sp,200
 526:	0000                	unimp
 528:	0000                	unimp
 52a:	0000                	unimp
 52c:	0044                	addi	s1,sp,4
 52e:	0076                	c.slli	zero,0x1d
 530:	01b8                	addi	a4,sp,200
 532:	0000                	unimp
 534:	0000                	unimp
 536:	0000                	unimp
 538:	0044                	addi	s1,sp,4
 53a:	01bc0077          	0x1bc0077
 53e:	0000                	unimp
 540:	0000                	unimp
 542:	0000                	unimp
 544:	0044                	addi	s1,sp,4
 546:	0078                	addi	a4,sp,12
 548:	01c0                	addi	s0,sp,196
 54a:	0000                	unimp
 54c:	0000                	unimp
 54e:	0000                	unimp
 550:	0044                	addi	s1,sp,4
 552:	0079                	c.nop	30
 554:	01c4                	addi	s1,sp,196
 556:	0000                	unimp
 558:	0000                	unimp
 55a:	0000                	unimp
 55c:	0044                	addi	s1,sp,4
 55e:	007a                	c.slli	zero,0x1e
 560:	01c8                	addi	a0,sp,196
 562:	0000                	unimp
 564:	0000                	unimp
 566:	0000                	unimp
 568:	0044                	addi	s1,sp,4
 56a:	01cc007b          	0x1cc007b
 56e:	0000                	unimp
 570:	0000                	unimp
 572:	0000                	unimp
 574:	0044                	addi	s1,sp,4
 576:	007c                	addi	a5,sp,12
 578:	01d0                	addi	a2,sp,196
 57a:	0000                	unimp
 57c:	0000                	unimp
 57e:	0000                	unimp
 580:	0044                	addi	s1,sp,4
 582:	007d                	c.nop	31
 584:	01d4                	addi	a3,sp,196
 586:	0000                	unimp
 588:	0000                	unimp
 58a:	0000                	unimp
 58c:	0044                	addi	s1,sp,4
 58e:	007e                	c.slli	zero,0x1f
 590:	01d8                	addi	a4,sp,196
 592:	0000                	unimp
 594:	0000                	unimp
 596:	0000                	unimp
 598:	0044                	addi	s1,sp,4
 59a:	007f                	0x7f
 59c:	01dc                	addi	a5,sp,196
 59e:	0000                	unimp
 5a0:	0000                	unimp
 5a2:	0000                	unimp
 5a4:	0044                	addi	s1,sp,4
 5a6:	0080                	addi	s0,sp,64
 5a8:	01e0                	addi	s0,sp,204
 5aa:	0000                	unimp
 5ac:	0000                	unimp
 5ae:	0000                	unimp
 5b0:	0044                	addi	s1,sp,4
 5b2:	0081                	addi	ra,ra,0
 5b4:	01e8                	addi	a0,sp,204
 5b6:	0000                	unimp
 5b8:	0000                	unimp
 5ba:	0000                	unimp
 5bc:	0044                	addi	s1,sp,4
 5be:	0082                	c.slli64	ra
 5c0:	01ec                	addi	a1,sp,204
 5c2:	0000                	unimp
 5c4:	0000                	unimp
 5c6:	0000                	unimp
 5c8:	0044                	addi	s1,sp,4
 5ca:	01f00083          	lb	ra,31(zero) # 1f <_start+0x1f>
 5ce:	0000                	unimp
 5d0:	0000                	unimp
 5d2:	0000                	unimp
 5d4:	0044                	addi	s1,sp,4
 5d6:	0084                	addi	s1,sp,64
 5d8:	01f4                	addi	a3,sp,204
 5da:	0000                	unimp
 5dc:	0000                	unimp
 5de:	0000                	unimp
 5e0:	0044                	addi	s1,sp,4
 5e2:	0085                	addi	ra,ra,1
 5e4:	01f8                	addi	a4,sp,204
 5e6:	0000                	unimp
 5e8:	0000                	unimp
 5ea:	0000                	unimp
 5ec:	0044                	addi	s1,sp,4
 5ee:	0086                	slli	ra,ra,0x1
 5f0:	01fc                	addi	a5,sp,204
 5f2:	0000                	unimp
 5f4:	0000                	unimp
 5f6:	0000                	unimp
 5f8:	0044                	addi	s1,sp,4
 5fa:	0200008b          	0x200008b
 5fe:	0000                	unimp
 600:	0000                	unimp
 602:	0000                	unimp
 604:	0044                	addi	s1,sp,4
 606:	008c                	addi	a1,sp,64
 608:	0204                	addi	s1,sp,256
 60a:	0000                	unimp
 60c:	0000                	unimp
 60e:	0000                	unimp
 610:	0044                	addi	s1,sp,4
 612:	008d                	addi	ra,ra,3
 614:	0208                	addi	a0,sp,256
 616:	0000                	unimp
 618:	0000                	unimp
 61a:	0000                	unimp
 61c:	0044                	addi	s1,sp,4
 61e:	008e                	slli	ra,ra,0x3
 620:	020c                	addi	a1,sp,256
 622:	0000                	unimp
 624:	0000                	unimp
 626:	0000                	unimp
 628:	0044                	addi	s1,sp,4
 62a:	0210008f          	0x210008f
 62e:	0000                	unimp
 630:	0000                	unimp
 632:	0000                	unimp
 634:	0044                	addi	s1,sp,4
 636:	0090                	addi	a2,sp,64
 638:	0214                	addi	a3,sp,256
 63a:	0000                	unimp
 63c:	0000                	unimp
 63e:	0000                	unimp
 640:	0044                	addi	s1,sp,4
 642:	0091                	addi	ra,ra,4
 644:	0218                	addi	a4,sp,256
 646:	0000                	unimp
 648:	0000                	unimp
 64a:	0000                	unimp
 64c:	0044                	addi	s1,sp,4
 64e:	0092                	slli	ra,ra,0x4
 650:	021c                	addi	a5,sp,256
 652:	0000                	unimp
 654:	0000                	unimp
 656:	0000                	unimp
 658:	0044                	addi	s1,sp,4
 65a:	02200093          	li	ra,34
 65e:	0000                	unimp
 660:	0000                	unimp
 662:	0000                	unimp
 664:	0044                	addi	s1,sp,4
 666:	0094                	addi	a3,sp,64
 668:	0224                	addi	s1,sp,264
 66a:	0000                	unimp
 66c:	0000                	unimp
 66e:	0000                	unimp
 670:	0044                	addi	s1,sp,4
 672:	0099                	addi	ra,ra,6
 674:	0228                	addi	a0,sp,264
 676:	0000                	unimp
 678:	0000                	unimp
 67a:	0000                	unimp
 67c:	0044                	addi	s1,sp,4
 67e:	009a                	slli	ra,ra,0x6
 680:	022c                	addi	a1,sp,264
 682:	0000                	unimp
 684:	0000                	unimp
 686:	0000                	unimp
 688:	0044                	addi	s1,sp,4
 68a:	0230009b          	0x230009b
 68e:	0000                	unimp
 690:	0000                	unimp
 692:	0000                	unimp
 694:	0044                	addi	s1,sp,4
 696:	009c                	addi	a5,sp,64
 698:	0238                	addi	a4,sp,264
 69a:	0000                	unimp
 69c:	0000                	unimp
 69e:	0000                	unimp
 6a0:	0044                	addi	s1,sp,4
 6a2:	009d                	addi	ra,ra,7
 6a4:	023c                	addi	a5,sp,264
 6a6:	0000                	unimp
 6a8:	0000                	unimp
 6aa:	0000                	unimp
 6ac:	0044                	addi	s1,sp,4
 6ae:	009e                	slli	ra,ra,0x7
 6b0:	0240                	addi	s0,sp,260
 6b2:	0000                	unimp
 6b4:	0000                	unimp
 6b6:	0000                	unimp
 6b8:	0044                	addi	s1,sp,4
 6ba:	009f 0244 0000      	0x244009f
 6c0:	0000                	unimp
 6c2:	0000                	unimp
 6c4:	0044                	addi	s1,sp,4
 6c6:	00a4                	addi	s1,sp,72
 6c8:	0248                	addi	a0,sp,260
 6ca:	0000                	unimp
 6cc:	0000                	unimp
 6ce:	0000                	unimp
 6d0:	0044                	addi	s1,sp,4
 6d2:	00a5                	addi	ra,ra,9
 6d4:	024c                	addi	a1,sp,260
 6d6:	0000                	unimp
 6d8:	0000                	unimp
 6da:	0000                	unimp
 6dc:	0044                	addi	s1,sp,4
 6de:	00a6                	slli	ra,ra,0x9
 6e0:	0250                	addi	a2,sp,260
 6e2:	0000                	unimp
 6e4:	0000                	unimp
 6e6:	0000                	unimp
 6e8:	0044                	addi	s1,sp,4
 6ea:	025800a7          	0x25800a7
 6ee:	0000                	unimp
 6f0:	0000                	unimp
 6f2:	0000                	unimp
 6f4:	0044                	addi	s1,sp,4
 6f6:	00a8                	addi	a0,sp,72
 6f8:	025c                	addi	a5,sp,260
 6fa:	0000                	unimp
 6fc:	0000                	unimp
 6fe:	0000                	unimp
 700:	0044                	addi	s1,sp,4
 702:	00a9                	addi	ra,ra,10
 704:	0260                	addi	s0,sp,268
 706:	0000                	unimp
 708:	0000                	unimp
 70a:	0000                	unimp
 70c:	0044                	addi	s1,sp,4
 70e:	00aa                	slli	ra,ra,0xa
 710:	0264                	addi	s1,sp,268
 712:	0000                	unimp
 714:	0000                	unimp
 716:	0000                	unimp
 718:	0044                	addi	s1,sp,4
 71a:	026800af          	0x26800af
 71e:	0000                	unimp
 720:	0000                	unimp
 722:	0000                	unimp
 724:	0044                	addi	s1,sp,4
 726:	00b0                	addi	a2,sp,72
 728:	0270                	addi	a2,sp,268
 72a:	0000                	unimp
 72c:	0000                	unimp
 72e:	0000                	unimp
 730:	0044                	addi	s1,sp,4
 732:	00b1                	addi	ra,ra,12
 734:	0278                	addi	a4,sp,268
 736:	0000                	unimp
 738:	0000                	unimp
 73a:	0000                	unimp
 73c:	0044                	addi	s1,sp,4
 73e:	00b2                	slli	ra,ra,0xc
 740:	027c                	addi	a5,sp,268
 742:	0000                	unimp
 744:	0000                	unimp
 746:	0000                	unimp
 748:	0044                	addi	s1,sp,4
 74a:	00b4                	addi	a3,sp,72
 74c:	0280                	addi	s0,sp,320
 74e:	0000                	unimp
 750:	0000                	unimp
 752:	0000                	unimp
 754:	0044                	addi	s1,sp,4
 756:	00b5                	addi	ra,ra,13
 758:	0284                	addi	s1,sp,320
 75a:	0000                	unimp
 75c:	0000                	unimp
 75e:	0000                	unimp
 760:	0044                	addi	s1,sp,4
 762:	00b6                	slli	ra,ra,0xd
 764:	0288                	addi	a0,sp,320
 766:	0000                	unimp
 768:	0000                	unimp
 76a:	0000                	unimp
 76c:	0044                	addi	s1,sp,4
 76e:	028c00b7          	lui	ra,0x28c0
 772:	0000                	unimp
 774:	0000                	unimp
 776:	0000                	unimp
 778:	0044                	addi	s1,sp,4
 77a:	00b8                	addi	a4,sp,72
 77c:	0290                	addi	a2,sp,320
 77e:	0000                	unimp
 780:	0000                	unimp
 782:	0000                	unimp
 784:	0044                	addi	s1,sp,4
 786:	00b9                	addi	ra,ra,14
 788:	0294                	addi	a3,sp,320
 78a:	0000                	unimp
 78c:	0000                	unimp
 78e:	0000                	unimp
 790:	0044                	addi	s1,sp,4
 792:	00ba                	slli	ra,ra,0xe
 794:	0298                	addi	a4,sp,320
 796:	0000                	unimp
 798:	0000                	unimp
 79a:	0000                	unimp
 79c:	0044                	addi	s1,sp,4
 79e:	029c00bb          	0x29c00bb
 7a2:	0000                	unimp
 7a4:	0000                	unimp
 7a6:	0000                	unimp
 7a8:	0044                	addi	s1,sp,4
 7aa:	00bc                	addi	a5,sp,72
 7ac:	02a0                	addi	s0,sp,328
 7ae:	0000                	unimp
 7b0:	0000                	unimp
 7b2:	0000                	unimp
 7b4:	0044                	addi	s1,sp,4
 7b6:	00bd                	addi	ra,ra,15
 7b8:	02a4                	addi	s1,sp,328
 7ba:	0000                	unimp
 7bc:	0000                	unimp
 7be:	0000                	unimp
 7c0:	0044                	addi	s1,sp,4
 7c2:	00c2                	slli	ra,ra,0x10
 7c4:	02a8                	addi	a0,sp,328
 7c6:	0000                	unimp
 7c8:	0000                	unimp
 7ca:	0000                	unimp
 7cc:	0044                	addi	s1,sp,4
 7ce:	02b000c3          	fmadd.d	ft1,ft0,fa1,ft0,rne
 7d2:	0000                	unimp
 7d4:	0000                	unimp
 7d6:	0000                	unimp
 7d8:	0044                	addi	s1,sp,4
 7da:	00c4                	addi	s1,sp,68
 7dc:	02b4                	addi	a3,sp,328
 7de:	0000                	unimp
 7e0:	0000                	unimp
 7e2:	0000                	unimp
 7e4:	0044                	addi	s1,sp,4
 7e6:	00c6                	slli	ra,ra,0x11
 7e8:	02b8                	addi	a4,sp,328
 7ea:	0000                	unimp
 7ec:	0000                	unimp
 7ee:	0000                	unimp
 7f0:	0044                	addi	s1,sp,4
 7f2:	02bc00c7          	fmsub.d	ft1,fs8,fa1,ft0,rne
 7f6:	0000                	unimp
 7f8:	0000                	unimp
 7fa:	0000                	unimp
 7fc:	0044                	addi	s1,sp,4
 7fe:	00c8                	addi	a0,sp,68
 800:	02c0                	addi	s0,sp,324
 802:	0000                	unimp
 804:	0000                	unimp
 806:	0000                	unimp
 808:	0044                	addi	s1,sp,4
 80a:	00c9                	addi	ra,ra,18
 80c:	02c4                	addi	s1,sp,324
 80e:	0000                	unimp
 810:	0000                	unimp
 812:	0000                	unimp
 814:	0044                	addi	s1,sp,4
 816:	00ca                	slli	ra,ra,0x12
 818:	02c8                	addi	a0,sp,324
 81a:	0000                	unimp
 81c:	0000                	unimp
 81e:	0000                	unimp
 820:	0044                	addi	s1,sp,4
 822:	02cc00cb          	fnmsub.d	ft1,fs8,fa2,ft0,rne
 826:	0000                	unimp
 828:	0000                	unimp
 82a:	0000                	unimp
 82c:	0044                	addi	s1,sp,4
 82e:	00cc                	addi	a1,sp,68
 830:	02d0                	addi	a2,sp,324
 832:	0000                	unimp
 834:	0000                	unimp
 836:	0000                	unimp
 838:	0044                	addi	s1,sp,4
 83a:	00cd                	addi	ra,ra,19
 83c:	02d4                	addi	a3,sp,324
 83e:	0000                	unimp
 840:	0000                	unimp
 842:	0000                	unimp
 844:	0044                	addi	s1,sp,4
 846:	00ce                	slli	ra,ra,0x13
 848:	02d8                	addi	a4,sp,324
 84a:	0000                	unimp
 84c:	0000                	unimp
 84e:	0000                	unimp
 850:	0044                	addi	s1,sp,4
 852:	02dc00d3          	fadd.d	ft1,fs8,fa3,rne
 856:	0000                	unimp
 858:	0000                	unimp
 85a:	0000                	unimp
 85c:	0044                	addi	s1,sp,4
 85e:	00d4                	addi	a3,sp,68
 860:	02e0                	addi	s0,sp,332
 862:	0000                	unimp
 864:	0000                	unimp
 866:	0000                	unimp
 868:	0044                	addi	s1,sp,4
 86a:	00d5                	addi	ra,ra,21
 86c:	02e4                	addi	s1,sp,332
 86e:	0000                	unimp
 870:	0000                	unimp
 872:	0000                	unimp
 874:	0044                	addi	s1,sp,4
 876:	00d6                	slli	ra,ra,0x15
 878:	02e8                	addi	a0,sp,332
 87a:	0000                	unimp
 87c:	0000                	unimp
 87e:	0000                	unimp
 880:	0044                	addi	s1,sp,4
 882:	02ec00d7          	0x2ec00d7
 886:	0000                	unimp
 888:	0000                	unimp
 88a:	0000                	unimp
 88c:	0044                	addi	s1,sp,4
 88e:	00d8                	addi	a4,sp,68
 890:	02f0                	addi	a2,sp,332
 892:	0000                	unimp
 894:	0000                	unimp
 896:	0000                	unimp
 898:	0044                	addi	s1,sp,4
 89a:	00d9                	addi	ra,ra,22
 89c:	02f4                	addi	a3,sp,332
	...

セクション .stabstr の逆アセンブル:

00000000 <.stabstr>:
   0:	7300                	flw	fs0,32(a4)
   2:	6174                	flw	fa3,68(a0)
   4:	7472                	flw	fs0,60(sp)
   6:	7075                	c.lui	zero,0xffffd
   8:	732e                	flw	ft6,232(sp)
   a:	2f00                	fld	fs0,24(a4)
   c:	632f7473          	csrrci	s0,0x632,30
  10:	3032                	fld	ft0,296(sp)
  12:	3232                	fld	ft4,296(sp)
  14:	3132632f          	0x3132632f
  18:	3832                	fld	fa6,296(sp)
  1a:	7376722f          	0x7376722f
  1e:	6d69                	lui	s10,0x1a
  20:	6d61732f          	0x6d61732f
  24:	6c70                	flw	fa2,92(s0)
  26:	2f65                	jal	7de <wait1+0x4fa>
  28:	696c                	flw	fa1,84(a0)
  2a:	6566                	flw	fa0,88(sp)
  2c:	696c002f          	0x696c002f
  30:	6566                	flw	fa0,88(sp)
  32:	732e                	flw	ft6,232(sp)
	...
